(lp0
(lp1
F5.1
aF3.5
aF1.4
aF0.2
aS'Iris-setosa'
p2
aa(lp3
F4.9
aF3.0
aF1.4
aF0.2
aS'Iris-setosa'
p4
aa(lp5
F4.7
aF3.2
aF1.3
aF0.2
aS'Iris-setosa'
p6
aa(lp7
F4.6
aF3.1
aF1.5
aF0.2
aS'Iris-setosa'
p8
aa(lp9
F5.0
aF3.6
aF1.4
aF0.2
aS'Iris-setosa'
p10
aa(lp11
F5.4
aF3.9
aF1.7
aF0.4
aS'Iris-setosa'
p12
aa(lp13
F4.6
aF3.4
aF1.4
aF0.3
aS'Iris-setosa'
p14
aa(lp15
F5.0
aF3.4
aF1.5
aF0.2
aS'Iris-setosa'
p16
aa(lp17
F4.4
aF2.9
aF1.4
aF0.2
aS'Iris-setosa'
p18
aa(lp19
F4.9
aF3.1
aF1.5
aF0.1
aS'Iris-setosa'
p20
aa(lp21
F5.4
aF3.7
aF1.5
aF0.2
aS'Iris-setosa'
p22
aa(lp23
F4.8
aF3.4
aF1.6
aF0.2
aS'Iris-setosa'
p24
aa(lp25
F4.8
aF3.0
aF1.4
aF0.1
aS'Iris-setosa'
p26
aa(lp27
F4.3
aF3.0
aF1.1
aF0.1
aS'Iris-setosa'
p28
aa(lp29
F5.8
aF4.0
aF1.2
aF0.2
aS'Iris-setosa'
p30
aa(lp31
F5.7
aF4.4
aF1.5
aF0.4
aS'Iris-setosa'
p32
aa(lp33
F5.4
aF3.9
aF1.3
aF0.4
aS'Iris-setosa'
p34
aa(lp35
F5.1
aF3.5
aF1.4
aF0.3
aS'Iris-setosa'
p36
aa(lp37
F5.7
aF3.8
aF1.7
aF0.3
aS'Iris-setosa'
p38
aa(lp39
F5.1
aF3.8
aF1.5
aF0.3
aS'Iris-setosa'
p40
aa(lp41
F5.4
aF3.4
aF1.7
aF0.2
aS'Iris-setosa'
p42
aa(lp43
F5.1
aF3.7
aF1.5
aF0.4
aS'Iris-setosa'
p44
aa(lp45
F4.6
aF3.6
aF1.0
aF0.2
aS'Iris-setosa'
p46
aa(lp47
F5.1
aF3.3
aF1.7
aF0.5
aS'Iris-setosa'
p48
aa(lp49
F4.8
aF3.4
aF1.9
aF0.2
aS'Iris-setosa'
p50
aa(lp51
F5.0
aF3.0
aF1.6
aF0.2
aS'Iris-setosa'
p52
aa(lp53
F5.0
aF3.4
aF1.6
aF0.4
aS'Iris-setosa'
p54
aa(lp55
F5.2
aF3.5
aF1.5
aF0.2
aS'Iris-setosa'
p56
aa(lp57
F5.2
aF3.4
aF1.4
aF0.2
aS'Iris-setosa'
p58
aa(lp59
F4.7
aF3.2
aF1.6
aF0.2
aS'Iris-setosa'
p60
aa(lp61
F4.8
aF3.1
aF1.6
aF0.2
aS'Iris-setosa'
p62
aa(lp63
F5.4
aF3.4
aF1.5
aF0.4
aS'Iris-setosa'
p64
aa(lp65
F5.2
aF4.1
aF1.5
aF0.1
aS'Iris-setosa'
p66
aa(lp67
F5.5
aF4.2
aF1.4
aF0.2
aS'Iris-setosa'
p68
aa(lp69
F4.9
aF3.1
aF1.5
aF0.1
aS'Iris-setosa'
p70
aa(lp71
F5.0
aF3.2
aF1.2
aF0.2
aS'Iris-setosa'
p72
aa(lp73
F5.5
aF3.5
aF1.3
aF0.2
aS'Iris-setosa'
p74
aa(lp75
F4.9
aF3.1
aF1.5
aF0.1
aS'Iris-setosa'
p76
aa(lp77
F4.4
aF3.0
aF1.3
aF0.2
aS'Iris-setosa'
p78
aa(lp79
F5.1
aF3.4
aF1.5
aF0.2
aS'Iris-setosa'
p80
aa(lp81
F4.8
aF3.0
aF1.4
aF0.3
aS'Iris-setosa'
p82
aa(lp83
F5.1
aF3.8
aF1.6
aF0.2
aS'Iris-setosa'
p84
aa(lp85
F4.6
aF3.2
aF1.4
aF0.2
aS'Iris-setosa'
p86
aa(lp87
F5.3
aF3.7
aF1.5
aF0.2
aS'Iris-setosa'
p88
aa(lp89
F5.0
aF3.3
aF1.4
aF0.2
aS'Iris-setosa'
p90
aa(lp91
F7.0
aF3.2
aF4.7
aF1.4
aS'Iris-versicolor'
p92
aa(lp93
F6.4
aF3.2
aF4.5
aF1.5
aS'Iris-versicolor'
p94
aa(lp95
F6.9
aF3.1
aF4.9
aF1.5
aS'Iris-versicolor'
p96
aa(lp97
F5.5
aF2.3
aF4.0
aF1.3
aS'Iris-versicolor'
p98
aa(lp99
F6.5
aF2.8
aF4.6
aF1.5
aS'Iris-versicolor'
p100
aa(lp101
F5.7
aF2.8
aF4.5
aF1.3
aS'Iris-versicolor'
p102
aa(lp103
F6.3
aF3.3
aF4.7
aF1.6
aS'Iris-versicolor'
p104
aa(lp105
F4.9
aF2.4
aF3.3
aF1.0
aS'Iris-versicolor'
p106
aa(lp107
F6.6
aF2.9
aF4.6
aF1.3
aS'Iris-versicolor'
p108
aa(lp109
F5.2
aF2.7
aF3.9
aF1.4
aS'Iris-versicolor'
p110
aa(lp111
F5.0
aF2.0
aF3.5
aF1.0
aS'Iris-versicolor'
p112
aa(lp113
F5.9
aF3.0
aF4.2
aF1.5
aS'Iris-versicolor'
p114
aa(lp115
F6.0
aF2.2
aF4.0
aF1.0
aS'Iris-versicolor'
p116
aa(lp117
F6.1
aF2.9
aF4.7
aF1.4
aS'Iris-versicolor'
p118
aa(lp119
F5.6
aF2.9
aF3.6
aF1.3
aS'Iris-versicolor'
p120
aa(lp121
F6.7
aF3.1
aF4.4
aF1.4
aS'Iris-versicolor'
p122
aa(lp123
F5.6
aF3.0
aF4.5
aF1.5
aS'Iris-versicolor'
p124
aa(lp125
F5.8
aF2.7
aF4.1
aF1.0
aS'Iris-versicolor'
p126
aa(lp127
F6.2
aF2.2
aF4.5
aF1.5
aS'Iris-versicolor'
p128
aa(lp129
F5.6
aF2.5
aF3.9
aF1.1
aS'Iris-versicolor'
p130
aa(lp131
F5.9
aF3.2
aF4.8
aF1.8
aS'Iris-versicolor'
p132
aa(lp133
F6.1
aF2.8
aF4.0
aF1.3
aS'Iris-versicolor'
p134
aa(lp135
F6.3
aF2.5
aF4.9
aF1.5
aS'Iris-versicolor'
p136
aa(lp137
F6.1
aF2.8
aF4.7
aF1.2
aS'Iris-versicolor'
p138
aa(lp139
F6.4
aF2.9
aF4.3
aF1.3
aS'Iris-versicolor'
p140
aa(lp141
F6.6
aF3.0
aF4.4
aF1.4
aS'Iris-versicolor'
p142
aa(lp143
F6.8
aF2.8
aF4.8
aF1.4
aS'Iris-versicolor'
p144
aa(lp145
F6.7
aF3.0
aF5.0
aF1.7
aS'Iris-versicolor'
p146
aa(lp147
F6.0
aF2.9
aF4.5
aF1.5
aS'Iris-versicolor'
p148
aa(lp149
F5.7
aF2.6
aF3.5
aF1.0
aS'Iris-versicolor'
p150
aa(lp151
F5.5
aF2.4
aF3.8
aF1.1
aS'Iris-versicolor'
p152
aa(lp153
F5.5
aF2.4
aF3.7
aF1.0
aS'Iris-versicolor'
p154
aa(lp155
F5.8
aF2.7
aF3.9
aF1.2
aS'Iris-versicolor'
p156
aa(lp157
F6.0
aF2.7
aF5.1
aF1.6
aS'Iris-versicolor'
p158
aa(lp159
F5.4
aF3.0
aF4.5
aF1.5
aS'Iris-versicolor'
p160
aa(lp161
F6.0
aF3.4
aF4.5
aF1.6
aS'Iris-versicolor'
p162
aa(lp163
F6.7
aF3.1
aF4.7
aF1.5
aS'Iris-versicolor'
p164
aa(lp165
F6.3
aF2.3
aF4.4
aF1.3
aS'Iris-versicolor'
p166
aa(lp167
F5.6
aF3.0
aF4.1
aF1.3
aS'Iris-versicolor'
p168
aa(lp169
F5.5
aF2.5
aF4.0
aF1.3
aS'Iris-versicolor'
p170
aa(lp171
F5.7
aF3.0
aF4.2
aF1.2
aS'Iris-versicolor'
p172
aa(lp173
F5.7
aF2.9
aF4.2
aF1.3
aS'Iris-versicolor'
p174
aa(lp175
F6.2
aF2.9
aF4.3
aF1.3
aS'Iris-versicolor'
p176
aa(lp177
F5.1
aF2.5
aF3.0
aF1.1
aS'Iris-versicolor'
p178
aa(lp179
F5.7
aF2.8
aF4.1
aF1.3
aS'Iris-versicolor'
p180
aa(lp181
F6.3
aF3.3
aF6.0
aF2.5
aS'Iris-virginica'
p182
aa(lp183
F5.8
aF2.7
aF5.1
aF1.9
aS'Iris-virginica'
p184
aa(lp185
F7.1
aF3.0
aF5.9
aF2.1
aS'Iris-virginica'
p186
aa(lp187
F6.3
aF2.9
aF5.6
aF1.8
aS'Iris-virginica'
p188
aa(lp189
F6.5
aF3.0
aF5.8
aF2.2
aS'Iris-virginica'
p190
aa(lp191
F7.6
aF3.0
aF6.6
aF2.1
aS'Iris-virginica'
p192
aa(lp193
F4.9
aF2.5
aF4.5
aF1.7
aS'Iris-virginica'
p194
aa(lp195
F7.3
aF2.9
aF6.3
aF1.8
aS'Iris-virginica'
p196
aa(lp197
F6.7
aF2.5
aF5.8
aF1.8
aS'Iris-virginica'
p198
aa(lp199
F7.2
aF3.6
aF6.1
aF2.5
aS'Iris-virginica'
p200
aa(lp201
F6.5
aF3.2
aF5.1
aF2.0
aS'Iris-virginica'
p202
aa(lp203
F6.4
aF2.7
aF5.3
aF1.9
aS'Iris-virginica'
p204
aa(lp205
F6.8
aF3.0
aF5.5
aF2.1
aS'Iris-virginica'
p206
aa(lp207
F5.7
aF2.5
aF5.0
aF2.0
aS'Iris-virginica'
p208
aa(lp209
F5.8
aF2.8
aF5.1
aF2.4
aS'Iris-virginica'
p210
aa(lp211
F6.4
aF3.2
aF5.3
aF2.3
aS'Iris-virginica'
p212
aa(lp213
F6.5
aF3.0
aF5.5
aF1.8
aS'Iris-virginica'
p214
aa(lp215
F7.7
aF3.8
aF6.7
aF2.2
aS'Iris-virginica'
p216
aa(lp217
F7.7
aF2.6
aF6.9
aF2.3
aS'Iris-virginica'
p218
aa(lp219
F6.0
aF2.2
aF5.0
aF1.5
aS'Iris-virginica'
p220
aa(lp221
F6.9
aF3.2
aF5.7
aF2.3
aS'Iris-virginica'
p222
aa(lp223
F5.6
aF2.8
aF4.9
aF2.0
aS'Iris-virginica'
p224
aa(lp225
F7.7
aF2.8
aF6.7
aF2.0
aS'Iris-virginica'
p226
aa(lp227
F6.3
aF2.7
aF4.9
aF1.8
aS'Iris-virginica'
p228
aa(lp229
F6.7
aF3.3
aF5.7
aF2.1
aS'Iris-virginica'
p230
aa(lp231
F7.2
aF3.2
aF6.0
aF1.8
aS'Iris-virginica'
p232
aa(lp233
F6.2
aF2.8
aF4.8
aF1.8
aS'Iris-virginica'
p234
aa(lp235
F6.1
aF3.0
aF4.9
aF1.8
aS'Iris-virginica'
p236
aa(lp237
F6.4
aF2.8
aF5.6
aF2.1
aS'Iris-virginica'
p238
aa(lp239
F7.2
aF3.0
aF5.8
aF1.6
aS'Iris-virginica'
p240
aa(lp241
F7.4
aF2.8
aF6.1
aF1.9
aS'Iris-virginica'
p242
aa(lp243
F7.9
aF3.8
aF6.4
aF2.0
aS'Iris-virginica'
p244
aa(lp245
F6.4
aF2.8
aF5.6
aF2.2
aS'Iris-virginica'
p246
aa(lp247
F6.3
aF2.8
aF5.1
aF1.5
aS'Iris-virginica'
p248
aa(lp249
F6.1
aF2.6
aF5.6
aF1.4
aS'Iris-virginica'
p250
aa(lp251
F7.7
aF3.0
aF6.1
aF2.3
aS'Iris-virginica'
p252
aa(lp253
F6.3
aF3.4
aF5.6
aF2.4
aS'Iris-virginica'
p254
aa(lp255
F6.4
aF3.1
aF5.5
aF1.8
aS'Iris-virginica'
p256
aa(lp257
F6.0
aF3.0
aF4.8
aF1.8
aS'Iris-virginica'
p258
aa(lp259
F6.9
aF3.1
aF5.4
aF2.1
aS'Iris-virginica'
p260
aa(lp261
F6.7
aF3.0
aF5.2
aF2.3
aS'Iris-virginica'
p262
aa(lp263
F6.3
aF2.5
aF5.0
aF1.9
aS'Iris-virginica'
p264
aa(lp265
F6.5
aF3.0
aF5.2
aF2.0
aS'Iris-virginica'
p266
aa(lp267
F6.2
aF3.4
aF5.4
aF2.3
aS'Iris-virginica'
p268
aa(lp269
F5.9
aF3.0
aF5.1
aF1.8
aS'Iris-virginica'
p270
aa.