(lp0
(lp1
F4.8
aF3.1
aF1.6
aF0.2
aS'Iris-setosa'
p2
aa(lp3
F5.4
aF3.4
aF1.5
aF0.4
aS'Iris-setosa'
p4
aa(lp5
F5.2
aF4.1
aF1.5
aF0.1
aS'Iris-setosa'
p6
aa(lp7
F5.5
aF4.2
aF1.4
aF0.2
aS'Iris-setosa'
p8
aa(lp9
F4.9
aF3.1
aF1.5
aF0.1
aS'Iris-setosa'
p10
aa(lp11
F5.5
aF2.4
aF3.8
aF1.1
aS'Iris-versicolor'
p12
aa(lp13
F5.5
aF2.4
aF3.7
aF1.0
aS'Iris-versicolor'
p14
aa(lp15
F5.8
aF2.7
aF3.9
aF1.2
aS'Iris-versicolor'
p16
aa(lp17
F6.0
aF2.7
aF5.1
aF1.6
aS'Iris-versicolor'
p18
aa(lp19
F5.4
aF3.0
aF4.5
aF1.5
aS'Iris-versicolor'
p20
aa(lp21
F7.4
aF2.8
aF6.1
aF1.9
aS'Iris-virginica'
p22
aa(lp23
F7.9
aF3.8
aF6.4
aF2.0
aS'Iris-virginica'
p24
aa(lp25
F6.4
aF2.8
aF5.6
aF2.2
aS'Iris-virginica'
p26
aa(lp27
F6.3
aF2.8
aF5.1
aF1.5
aS'Iris-virginica'
p28
aa(lp29
F6.1
aF2.6
aF5.6
aF1.4
aS'Iris-virginica'
p30
aa.