(lp0
(lp1
F5.0
aF3.5
aF1.3
aF0.3
aS'Iris-setosa'
p2
aa(lp3
F4.5
aF2.3
aF1.3
aF0.3
aS'Iris-setosa'
p4
aa(lp5
F4.4
aF3.2
aF1.3
aF0.2
aS'Iris-setosa'
p6
aa(lp7
F5.0
aF3.5
aF1.6
aF0.6
aS'Iris-setosa'
p8
aa(lp9
F5.1
aF3.8
aF1.9
aF0.4
aS'Iris-setosa'
p10
aa(lp11
F5.5
aF2.6
aF4.4
aF1.2
aS'Iris-versicolor'
p12
aa(lp13
F6.1
aF3.0
aF4.6
aF1.4
aS'Iris-versicolor'
p14
aa(lp15
F5.8
aF2.6
aF4.0
aF1.2
aS'Iris-versicolor'
p16
aa(lp17
F5.0
aF2.3
aF3.3
aF1.0
aS'Iris-versicolor'
p18
aa(lp19
F5.6
aF2.7
aF4.2
aF1.3
aS'Iris-versicolor'
p20
aa(lp21
F6.7
aF3.1
aF5.6
aF2.4
aS'Iris-virginica'
p22
aa(lp23
F6.9
aF3.1
aF5.1
aF2.3
aS'Iris-virginica'
p24
aa(lp25
F5.8
aF2.7
aF5.1
aF1.9
aS'Iris-virginica'
p26
aa(lp27
F6.8
aF3.2
aF5.9
aF2.3
aS'Iris-virginica'
p28
aa(lp29
F6.7
aF3.3
aF5.7
aF2.5
aS'Iris-virginica'
p30
aa.