(lp0
(lp1
S'Age'
p2
aS'Year'
p3
aS'positive_nodes'
p4
aS'status'
p5
aa(lp6
S'30'
p7
aS'64'
p8
aS'1'
p9
ag9
aa(lp10
S'30'
p11
aS'62'
p12
aS'3'
p13
ag9
aa(lp14
S'30'
p15
aS'65'
p16
aS'0'
p17
ag9
aa(lp18
S'31'
p19
aS'59'
p20
aS'2'
p21
ag9
aa(lp22
S'31'
p23
aS'65'
p24
aS'4'
p25
ag9
aa(lp26
S'33'
p27
aS'58'
p28
aS'10'
p29
ag9
aa(lp30
S'33'
p31
aS'60'
p32
ag17
ag9
aa(lp33
S'34'
p34
aS'59'
p35
ag17
ag21
aa(lp36
S'34'
p37
aS'66'
p38
aS'9'
p39
ag21
aa(lp40
S'34'
p41
aS'58'
p42
aS'30'
p43
ag9
aa(lp44
S'34'
p45
aS'60'
p46
ag9
ag9
aa(lp47
S'34'
p48
aS'61'
p49
aS'10'
p50
ag9
aa(lp51
S'34'
p52
aS'67'
p53
aS'7'
p54
ag9
aa(lp55
S'34'
p56
aS'60'
p57
ag17
ag9
aa(lp58
S'35'
p59
aS'64'
p60
aS'13'
p61
ag9
aa(lp62
S'35'
p63
aS'63'
p64
ag17
ag9
aa(lp65
S'36'
p66
aS'60'
p67
ag9
ag9
aa(lp68
S'36'
p69
aS'69'
p70
ag17
ag9
aa(lp71
S'37'
p72
aS'60'
p73
ag17
ag9
aa(lp74
S'37'
p75
aS'63'
p76
ag17
ag9
aa(lp77
S'37'
p78
aS'58'
p79
ag17
ag9
aa(lp80
S'37'
p81
aS'59'
p82
aS'6'
p83
ag9
aa(lp84
S'37'
p85
aS'60'
p86
aS'15'
p87
ag9
aa(lp88
S'37'
p89
aS'63'
p90
ag17
ag9
aa(lp91
S'38'
p92
aS'69'
p93
aS'21'
p94
ag21
aa(lp95
S'38'
p96
aS'59'
p97
ag21
ag9
aa(lp98
S'38'
p99
aS'60'
p100
ag17
ag9
aa(lp101
S'38'
p102
aS'60'
p103
ag17
ag9
aa(lp104
S'38'
p105
aS'62'
p106
ag13
ag9
aa(lp107
S'38'
p108
aS'64'
p109
ag9
ag9
aa(lp110
S'38'
p111
aS'66'
p112
ag17
ag9
aa(lp113
S'38'
p114
aS'66'
p115
aS'11'
p116
ag9
aa(lp117
S'38'
p118
aS'60'
p119
ag9
ag9
aa(lp120
S'38'
p121
aS'67'
p122
aS'5'
p123
ag9
aa(lp124
S'39'
p125
aS'66'
p126
ag17
ag21
aa(lp127
S'39'
p128
aS'63'
p129
ag17
ag9
aa(lp130
S'39'
p131
aS'67'
p132
ag17
ag9
aa(lp133
S'39'
p134
aS'58'
p135
ag17
ag9
aa(lp136
S'39'
p137
aS'59'
p138
ag21
ag9
aa(lp139
S'39'
p140
aS'63'
p141
ag25
ag9
aa(lp142
S'40'
p143
aS'58'
p144
ag21
ag9
aa(lp145
S'40'
p146
aS'58'
p147
ag17
ag9
aa(lp148
S'40'
p149
aS'65'
p150
ag17
ag9
aa(lp151
S'41'
p152
aS'60'
p153
aS'23'
p154
ag21
aa(lp155
S'41'
p156
aS'64'
p157
ag17
ag21
aa(lp158
S'41'
p159
aS'67'
p160
ag17
ag21
aa(lp161
S'41'
p162
aS'58'
p163
ag17
ag9
aa(lp164
S'41'
p165
aS'59'
p166
aS'8'
p167
ag9
aa(lp168
S'41'
p169
aS'59'
p170
ag17
ag9
aa(lp171
S'41'
p172
aS'64'
p173
ag17
ag9
aa(lp174
S'41'
p175
aS'69'
p176
ag167
ag9
aa(lp177
S'41'
p178
aS'65'
p179
ag17
ag9
aa(lp180
S'41'
p181
aS'65'
p182
ag17
ag9
aa(lp183
S'42'
p184
aS'69'
p185
ag9
ag21
aa(lp186
S'42'
p187
aS'59'
p188
ag17
ag21
aa(lp189
S'42'
p190
aS'58'
p191
ag17
ag9
aa(lp192
S'42'
p193
aS'60'
p194
ag9
ag9
aa(lp195
S'42'
p196
aS'59'
p197
ag21
ag9
aa(lp198
S'42'
p199
aS'61'
p200
ag25
ag9
aa(lp201
S'42'
p202
aS'62'
p203
aS'20'
p204
ag9
aa(lp205
S'42'
p206
aS'65'
p207
ag17
ag9
aa(lp208
S'42'
p209
aS'63'
p210
ag9
ag9
aa(lp211
S'43'
p212
aS'58'
p213
aS'52'
p214
ag21
aa(lp215
S'43'
p216
aS'59'
p217
ag21
ag21
aa(lp218
S'43'
p219
aS'64'
p220
ag17
ag21
aa(lp221
S'43'
p222
aS'64'
p223
ag17
ag21
aa(lp224
S'43'
p225
aS'63'
p226
aS'14'
p227
ag9
aa(lp228
S'43'
p229
aS'64'
p230
ag21
ag9
aa(lp231
S'43'
p232
aS'64'
p233
ag13
ag9
aa(lp234
S'43'
p235
aS'60'
p236
ag17
ag9
aa(lp237
S'43'
p238
aS'63'
p239
ag21
ag9
aa(lp240
S'43'
p241
aS'65'
p242
ag17
ag9
aa(lp243
S'43'
p244
aS'66'
p245
ag25
ag9
aa(lp246
S'44'
p247
aS'64'
p248
ag83
ag21
aa(lp249
S'44'
p250
aS'58'
p251
ag39
ag21
aa(lp252
S'44'
p253
aS'63'
p254
aS'19'
p255
ag21
aa(lp256
S'44'
p257
aS'61'
p258
ag17
ag9
aa(lp259
S'44'
p260
aS'63'
p261
ag9
ag9
aa(lp262
S'44'
p263
aS'61'
p264
ag17
ag9
aa(lp265
S'44'
p266
aS'67'
p267
aS'16'
p268
ag9
aa(lp269
S'45'
p270
aS'65'
p271
ag83
ag21
aa(lp272
S'45'
p273
aS'66'
p274
ag17
ag21
aa(lp275
S'45'
p276
aS'67'
p277
ag9
ag21
aa(lp278
S'45'
p279
aS'60'
p280
ag17
ag9
aa(lp281
S'45'
p282
aS'67'
p283
ag17
ag9
aa(lp284
S'45'
p285
aS'59'
p286
aS'14'
p287
ag9
aa(lp288
S'45'
p289
aS'64'
p290
ag17
ag9
aa(lp291
S'45'
p292
aS'68'
p293
ag17
ag9
aa(lp294
S'45'
p295
aS'67'
p296
ag9
ag9
aa(lp297
S'46'
p298
aS'58'
p299
ag21
ag21
aa(lp300
S'46'
p301
aS'69'
p302
ag13
ag21
aa(lp303
S'46'
p304
aS'62'
p305
ag123
ag21
aa(lp306
S'46'
p307
aS'65'
p308
aS'20'
p309
ag21
aa(lp310
S'46'
p311
aS'62'
p312
ag17
ag9
aa(lp313
S'46'
p314
aS'58'
p315
ag13
ag9
aa(lp316
S'46'
p317
aS'63'
p318
ag17
ag9
aa(lp319
S'47'
p320
aS'63'
p321
aS'23'
p322
ag21
aa(lp323
S'47'
p324
aS'62'
p325
ag17
ag21
aa(lp326
S'47'
p327
aS'65'
p328
ag17
ag21
aa(lp329
S'47'
p330
aS'61'
p331
ag17
ag9
aa(lp332
S'47'
p333
aS'63'
p334
ag83
ag9
aa(lp335
S'47'
p336
aS'66'
p337
ag17
ag9
aa(lp338
S'47'
p339
aS'67'
p340
ag17
ag9
aa(lp341
S'47'
p342
aS'58'
p343
ag13
ag9
aa(lp344
S'47'
p345
aS'60'
p346
ag25
ag9
aa(lp347
S'47'
p348
aS'68'
p349
ag25
ag9
aa(lp350
S'47'
p351
aS'66'
p352
aS'12'
p353
ag9
aa(lp354
S'48'
p355
aS'58'
p356
aS'11'
p357
ag21
aa(lp358
S'48'
p359
aS'58'
p360
aS'11'
p361
ag21
aa(lp362
S'48'
p363
aS'67'
p364
ag54
ag21
aa(lp365
S'48'
p366
aS'61'
p367
ag167
ag9
aa(lp368
S'48'
p369
aS'62'
p370
ag21
ag9
aa(lp371
S'48'
p372
aS'64'
p373
ag17
ag9
aa(lp374
S'48'
p375
aS'66'
p376
ag17
ag9
aa(lp377
S'49'
p378
aS'63'
p379
ag17
ag21
aa(lp380
S'49'
p381
aS'64'
p382
aS'10'
p383
ag21
aa(lp384
S'49'
p385
aS'61'
p386
ag9
ag9
aa(lp387
S'49'
p388
aS'62'
p389
ag17
ag9
aa(lp390
S'49'
p391
aS'66'
p392
ag17
ag9
aa(lp393
S'49'
p394
aS'60'
p395
ag9
ag9
aa(lp396
S'49'
p397
aS'62'
p398
ag9
ag9
aa(lp399
S'49'
p400
aS'63'
p401
ag13
ag9
aa(lp402
S'49'
p403
aS'61'
p404
ag17
ag9
aa(lp405
S'49'
p406
aS'67'
p407
ag9
ag9
aa(lp408
S'50'
p409
aS'63'
p410
aS'13'
p411
ag21
aa(lp412
S'50'
p413
aS'64'
p414
ag17
ag21
aa(lp415
S'50'
p416
aS'59'
p417
ag17
ag9
aa(lp418
S'50'
p419
aS'61'
p420
ag83
ag9
aa(lp421
S'50'
p422
aS'61'
p423
ag17
ag9
aa(lp424
S'50'
p425
aS'63'
p426
ag9
ag9
aa(lp427
S'50'
p428
aS'58'
p429
ag9
ag9
aa(lp430
S'50'
p431
aS'59'
p432
ag21
ag9
aa(lp433
S'50'
p434
aS'61'
p435
ag17
ag9
aa(lp436
S'50'
p437
aS'64'
p438
ag17
ag9
aa(lp439
S'50'
p440
aS'65'
p441
ag25
ag9
aa(lp442
S'50'
p443
aS'66'
p444
ag9
ag9
aa(lp445
S'51'
p446
aS'59'
p447
aS'13'
p448
ag21
aa(lp449
S'51'
p450
aS'59'
p451
ag13
ag21
aa(lp452
S'51'
p453
aS'64'
p454
ag54
ag9
aa(lp455
S'51'
p456
aS'59'
p457
ag9
ag9
aa(lp458
S'51'
p459
aS'65'
p460
ag17
ag9
aa(lp461
S'51'
p462
aS'66'
p463
ag9
ag9
aa(lp464
S'52'
p465
aS'69'
p466
ag13
ag21
aa(lp467
S'52'
p468
aS'59'
p469
ag21
ag21
aa(lp470
S'52'
p471
aS'62'
p472
ag13
ag21
aa(lp473
S'52'
p474
aS'66'
p475
ag25
ag21
aa(lp476
S'52'
p477
aS'61'
p478
ag17
ag9
aa(lp479
S'52'
p480
aS'63'
p481
ag25
ag9
aa(lp482
S'52'
p483
aS'69'
p484
ag17
ag9
aa(lp485
S'52'
p486
aS'60'
p487
ag25
ag9
aa(lp488
S'52'
p489
aS'60'
p490
ag123
ag9
aa(lp491
S'52'
p492
aS'62'
p493
ag17
ag9
aa(lp494
S'52'
p495
aS'62'
p496
ag9
ag9
aa(lp497
S'52'
p498
aS'64'
p499
ag17
ag9
aa(lp500
S'52'
p501
aS'65'
p502
ag17
ag9
aa(lp503
S'52'
p504
aS'68'
p505
ag17
ag9
aa(lp506
S'53'
p507
aS'58'
p508
ag25
ag21
aa(lp509
S'53'
p510
aS'65'
p511
ag9
ag21
aa(lp512
S'53'
p513
aS'59'
p514
ag13
ag21
aa(lp515
S'53'
p516
aS'60'
p517
ag39
ag21
aa(lp518
S'53'
p519
aS'63'
p520
aS'24'
p521
ag21
aa(lp522
S'53'
p523
aS'65'
p524
aS'12'
p525
ag21
aa(lp526
S'53'
p527
aS'58'
p528
ag9
ag9
aa(lp529
S'53'
p530
aS'60'
p531
ag9
ag9
aa(lp532
S'53'
p533
aS'60'
p534
ag21
ag9
aa(lp535
S'53'
p536
aS'61'
p537
ag9
ag9
aa(lp538
S'53'
p539
aS'63'
p540
ag17
ag9
aa(lp541
S'54'
p542
aS'60'
p543
aS'11'
p544
ag21
aa(lp545
S'54'
p546
aS'65'
p547
aS'23'
p548
ag21
aa(lp549
S'54'
p550
aS'65'
p551
ag123
ag21
aa(lp552
S'54'
p553
aS'68'
p554
ag54
ag21
aa(lp555
S'54'
p556
aS'59'
p557
ag54
ag9
aa(lp558
S'54'
p559
aS'60'
p560
ag13
ag9
aa(lp561
S'54'
p562
aS'66'
p563
ag17
ag9
aa(lp564
S'54'
p565
aS'67'
p566
aS'46'
p567
ag9
aa(lp568
S'54'
p569
aS'62'
p570
ag17
ag9
aa(lp571
S'54'
p572
aS'69'
p573
ag54
ag9
aa(lp574
S'54'
p575
aS'63'
p576
aS'19'
p577
ag9
aa(lp578
S'54'
p579
aS'58'
p580
ag9
ag9
aa(lp581
S'54'
p582
aS'62'
p583
ag17
ag9
aa(lp584
S'55'
p585
aS'63'
p586
ag83
ag21
aa(lp587
S'55'
p588
aS'68'
p589
aS'15'
p590
ag21
aa(lp591
S'55'
p592
aS'58'
p593
ag9
ag9
aa(lp594
S'55'
p595
aS'58'
p596
ag17
ag9
aa(lp597
S'55'
p598
aS'58'
p599
ag9
ag9
aa(lp600
S'55'
p601
aS'66'
p602
aS'18'
p603
ag9
aa(lp604
S'55'
p605
aS'66'
p606
ag17
ag9
aa(lp607
S'55'
p608
aS'69'
p609
ag13
ag9
aa(lp610
S'55'
p611
aS'69'
p612
aS'22'
p613
ag9
aa(lp614
S'55'
p615
aS'67'
p616
ag9
ag9
aa(lp617
S'56'
p618
aS'65'
p619
ag39
ag21
aa(lp620
S'56'
p621
aS'66'
p622
ag13
ag21
aa(lp623
S'56'
p624
aS'60'
p625
ag17
ag9
aa(lp626
S'56'
p627
aS'66'
p628
ag21
ag9
aa(lp629
S'56'
p630
aS'66'
p631
ag9
ag9
aa(lp632
S'56'
p633
aS'67'
p634
ag17
ag9
aa(lp635
S'56'
p636
aS'60'
p637
ag17
ag9
aa(lp638
S'57'
p639
aS'61'
p640
ag123
ag21
aa(lp641
S'57'
p642
aS'62'
p643
aS'14'
p644
ag21
aa(lp645
S'57'
p646
aS'64'
p647
ag9
ag21
aa(lp648
S'57'
p649
aS'64'
p650
ag39
ag9
aa(lp651
S'57'
p652
aS'69'
p653
ag17
ag9
aa(lp654
S'57'
p655
aS'61'
p656
ag17
ag9
aa(lp657
S'57'
p658
aS'62'
p659
ag17
ag9
aa(lp660
S'57'
p661
aS'63'
p662
ag17
ag9
aa(lp663
S'57'
p664
aS'64'
p665
ag17
ag9
aa(lp666
S'57'
p667
aS'64'
p668
ag17
ag9
aa(lp669
S'57'
p670
aS'67'
p671
ag17
ag9
aa(lp672
S'58'
p673
aS'59'
p674
ag17
ag9
aa(lp675
S'58'
p676
aS'60'
p677
ag13
ag9
aa(lp678
S'58'
p679
aS'61'
p680
ag9
ag9
aa(lp681
S'58'
p682
aS'67'
p683
ag17
ag9
aa(lp684
S'58'
p685
aS'58'
p686
ag17
ag9
aa(lp687
S'58'
p688
aS'58'
p689
ag13
ag9
aa(lp690
S'58'
p691
aS'61'
p692
ag21
ag9
aa(lp693
S'59'
p694
aS'62'
p695
aS'35'
p696
ag21
aa(lp697
S'59'
p698
aS'60'
p699
ag17
ag9
aa(lp700
S'59'
p701
aS'63'
p702
ag17
ag9
aa(lp703
S'59'
p704
aS'64'
p705
ag9
ag9
aa(lp706
S'59'
p707
aS'64'
p708
ag25
ag9
aa(lp709
S'59'
p710
aS'64'
p711
ag17
ag9
aa(lp712
S'59'
p713
aS'64'
p714
ag54
ag9
aa(lp715
S'59'
p716
aS'67'
p717
ag13
ag9
aa(lp718
S'60'
p719
aS'59'
p720
aS'17'
p721
ag21
aa(lp722
S'60'
p723
aS'65'
p724
ag17
ag21
aa(lp725
S'60'
p726
aS'61'
p727
ag9
ag9
aa(lp728
S'60'
p729
aS'67'
p730
ag21
ag9
aa(lp731
S'60'
p732
aS'61'
p733
aS'25'
p734
ag9
aa(lp735
S'60'
p736
aS'64'
p737
ag17
ag9
aa(lp738
S'61'
p739
aS'62'
p740
ag123
ag21
aa(lp741
S'61'
p742
aS'65'
p743
ag17
ag21
aa(lp744
S'61'
p745
aS'68'
p746
ag9
ag21
aa(lp747
S'61'
p748
aS'59'
p749
ag17
ag9
aa(lp750
S'61'
p751
aS'59'
p752
ag17
ag9
aa(lp753
S'61'
p754
aS'64'
p755
ag17
ag9
aa(lp756
S'61'
p757
aS'65'
p758
ag167
ag9
aa(lp759
S'61'
p760
aS'68'
p761
ag17
ag9
aa(lp762
S'61'
p763
aS'59'
p764
ag17
ag9
aa(lp765
S'62'
p766
aS'59'
p767
aS'13'
p768
ag21
aa(lp769
S'62'
p770
aS'58'
p771
ag17
ag21
aa(lp772
S'62'
p773
aS'65'
p774
aS'19'
p775
ag21
aa(lp776
S'62'
p777
aS'62'
p778
ag83
ag9
aa(lp779
S'62'
p780
aS'66'
p781
ag17
ag9
aa(lp782
S'62'
p783
aS'66'
p784
ag17
ag9
aa(lp785
S'62'
p786
aS'58'
p787
ag17
ag9
aa(lp788
S'63'
p789
aS'60'
p790
ag9
ag21
aa(lp791
S'63'
p792
aS'61'
p793
ag17
ag9
aa(lp794
S'63'
p795
aS'62'
p796
ag17
ag9
aa(lp797
S'63'
p798
aS'63'
p799
ag17
ag9
aa(lp800
S'63'
p801
aS'63'
p802
ag17
ag9
aa(lp803
S'63'
p804
aS'66'
p805
ag17
ag9
aa(lp806
S'63'
p807
aS'61'
p808
ag39
ag9
aa(lp809
S'63'
p810
aS'61'
p811
aS'28'
p812
ag9
aa(lp813
S'64'
p814
aS'58'
p815
ag17
ag9
aa(lp816
S'64'
p817
aS'65'
p818
aS'22'
p819
ag9
aa(lp820
S'64'
p821
aS'66'
p822
ag17
ag9
aa(lp823
S'64'
p824
aS'61'
p825
ag17
ag9
aa(lp826
S'64'
p827
aS'68'
p828
ag17
ag9
aa(lp829
S'65'
p830
aS'58'
p831
ag17
ag21
aa(lp832
S'65'
p833
aS'61'
p834
ag21
ag21
aa(lp835
S'65'
p836
aS'62'
p837
aS'22'
p838
ag21
aa(lp839
S'65'
p840
aS'66'
p841
aS'15'
p842
ag21
aa(lp843
S'65'
p844
aS'58'
p845
ag17
ag9
aa(lp846
S'65'
p847
aS'64'
p848
ag17
ag9
aa(lp849
S'65'
p850
aS'67'
p851
ag17
ag9
aa(lp852
S'65'
p853
aS'59'
p854
ag21
ag9
aa(lp855
S'65'
p856
aS'64'
p857
ag17
ag9
aa(lp858
S'65'
p859
aS'67'
p860
ag9
ag9
aa(lp861
S'66'
p862
aS'58'
p863
ag17
ag21
aa(lp864
S'66'
p865
aS'61'
p866
aS'13'
p867
ag21
aa(lp868
S'66'
p869
aS'58'
p870
ag17
ag9
aa(lp871
S'66'
p872
aS'58'
p873
ag9
ag9
aa(lp874
S'66'
p875
aS'68'
p876
ag17
ag9
aa(lp877
S'67'
p878
aS'64'
p879
ag167
ag21
aa(lp880
S'67'
p881
aS'63'
p882
ag9
ag21
aa(lp883
S'67'
p884
aS'66'
p885
ag17
ag9
aa(lp886
S'67'
p887
aS'66'
p888
ag17
ag9
aa(lp889
S'67'
p890
aS'61'
p891
ag17
ag9
aa(lp892
S'67'
p893
aS'65'
p894
ag17
ag9
aa(lp895
S'68'
p896
aS'67'
p897
ag17
ag9
aa(lp898
S'68'
p899
aS'68'
p900
ag17
ag9
aa(lp901
S'69'
p902
aS'67'
p903
ag167
ag21
aa(lp904
S'69'
p905
aS'60'
p906
ag17
ag9
aa(lp907
S'69'
p908
aS'65'
p909
ag17
ag9
aa(lp910
S'69'
p911
aS'66'
p912
ag17
ag9
aa(lp913
S'70'
p914
aS'58'
p915
ag17
ag21
aa(lp916
S'70'
p917
aS'58'
p918
ag25
ag21
aa(lp919
S'70'
p920
aS'66'
p921
aS'14'
p922
ag9
aa(lp923
S'70'
p924
aS'67'
p925
ag17
ag9
aa(lp926
S'70'
p927
aS'68'
p928
ag17
ag9
aa(lp929
S'70'
p930
aS'59'
p931
ag167
ag9
aa(lp932
S'70'
p933
aS'63'
p934
ag17
ag9
aa(lp935
S'71'
p936
aS'68'
p937
ag21
ag9
aa(lp938
S'72'
p939
aS'63'
p940
ag17
ag21
aa(lp941
S'72'
p942
aS'58'
p943
ag17
ag9
aa(lp944
S'72'
p945
aS'64'
p946
ag17
ag9
aa(lp947
S'72'
p948
aS'67'
p949
ag13
ag9
aa(lp950
S'73'
p951
aS'62'
p952
ag17
ag9
aa(lp953
S'73'
p954
aS'68'
p955
ag17
ag9
aa(lp956
S'74'
p957
aS'65'
p958
ag13
ag21
aa(lp959
S'74'
p960
aS'63'
p961
ag17
ag9
aa(lp962
S'75'
p963
aS'62'
p964
ag9
ag9
aa(lp965
S'76'
p966
aS'67'
p967
ag17
ag9
aa(lp968
S'77'
p969
aS'65'
p970
ag13
ag9
aa(lp971
S'78'
p972
aS'65'
p973
ag9
ag21
aa(lp974
S'83'
p975
aS'58'
p976
ag21
ag21
aa.