(lp0
(lp1
S'38'
p2
aS'60'
p3
aS'0'
p4
aS'1'
p5
aa(lp6
S'38'
p7
aS'60'
p8
ag4
ag5
aa(lp9
S'38'
p10
aS'62'
p11
aS'3'
p12
ag5
aa(lp13
S'38'
p14
aS'64'
p15
ag5
ag5
aa(lp16
S'38'
p17
aS'66'
p18
ag4
ag5
aa(lp19
S'38'
p20
aS'66'
p21
aS'11'
p22
ag5
aa(lp23
S'38'
p24
aS'60'
p25
ag5
ag5
aa(lp26
S'38'
p27
aS'67'
p28
aS'5'
p29
ag5
aa(lp30
S'39'
p31
aS'63'
p32
ag4
ag5
aa(lp33
S'39'
p34
aS'67'
p35
ag4
ag5
aa(lp36
S'39'
p37
aS'58'
p38
ag4
ag5
aa(lp39
S'39'
p40
aS'59'
p41
aS'2'
p42
ag5
aa(lp43
S'39'
p44
aS'63'
p45
aS'4'
p46
ag5
aa(lp47
S'40'
p48
aS'58'
p49
ag42
ag5
aa(lp50
S'40'
p51
aS'58'
p52
ag4
ag5
aa(lp53
S'40'
p54
aS'65'
p55
ag4
ag5
aa(lp56
S'41'
p57
aS'58'
p58
ag4
ag5
aa(lp59
S'41'
p60
aS'59'
p61
aS'8'
p62
ag5
aa(lp63
S'41'
p64
aS'59'
p65
ag4
ag5
aa(lp66
S'41'
p67
aS'64'
p68
ag4
ag5
aa(lp69
S'41'
p70
aS'69'
p71
ag62
ag5
aa(lp72
S'41'
p73
aS'65'
p74
ag4
ag5
aa(lp75
S'41'
p76
aS'65'
p77
ag4
ag5
aa(lp78
S'42'
p79
aS'58'
p80
ag4
ag5
aa(lp81
S'42'
p82
aS'60'
p83
ag5
ag5
aa(lp84
S'42'
p85
aS'59'
p86
ag42
ag5
aa(lp87
S'42'
p88
aS'61'
p89
ag46
ag5
aa(lp90
S'42'
p91
aS'62'
p92
aS'20'
p93
ag5
aa(lp94
S'42'
p95
aS'65'
p96
ag4
ag5
aa(lp97
S'42'
p98
aS'63'
p99
ag5
ag5
aa(lp100
S'43'
p101
aS'58'
p102
aS'52'
p103
ag42
aa(lp104
S'43'
p105
aS'59'
p106
ag42
ag42
aa(lp107
S'43'
p108
aS'64'
p109
ag4
ag42
aa(lp110
S'43'
p111
aS'64'
p112
ag4
ag42
aa(lp113
S'43'
p114
aS'63'
p115
aS'14'
p116
ag5
aa(lp117
S'43'
p118
aS'64'
p119
ag42
ag5
aa(lp120
S'43'
p121
aS'64'
p122
ag12
ag5
aa(lp123
S'43'
p124
aS'60'
p125
ag4
ag5
aa(lp126
S'43'
p127
aS'63'
p128
ag42
ag5
aa(lp129
S'43'
p130
aS'65'
p131
ag4
ag5
aa(lp132
S'43'
p133
aS'66'
p134
ag46
ag5
aa(lp135
S'44'
p136
aS'64'
p137
aS'6'
p138
ag42
aa(lp139
S'44'
p140
aS'58'
p141
aS'9'
p142
ag42
aa(lp143
S'44'
p144
aS'63'
p145
aS'19'
p146
ag42
aa(lp147
S'44'
p148
aS'61'
p149
ag4
ag5
aa(lp150
S'44'
p151
aS'63'
p152
ag5
ag5
aa(lp153
S'44'
p154
aS'61'
p155
ag4
ag5
aa(lp156
S'44'
p157
aS'67'
p158
aS'16'
p159
ag5
aa(lp160
S'45'
p161
aS'65'
p162
ag138
ag42
aa(lp163
S'45'
p164
aS'66'
p165
ag4
ag42
aa(lp166
S'45'
p167
aS'67'
p168
ag5
ag42
aa(lp169
S'45'
p170
aS'60'
p171
ag4
ag5
aa(lp172
S'45'
p173
aS'67'
p174
ag4
ag5
aa(lp175
S'45'
p176
aS'59'
p177
aS'14'
p178
ag5
aa(lp179
S'45'
p180
aS'64'
p181
ag4
ag5
aa(lp182
S'45'
p183
aS'68'
p184
ag4
ag5
aa(lp185
S'45'
p186
aS'67'
p187
ag5
ag5
aa(lp188
S'46'
p189
aS'58'
p190
ag42
ag42
aa(lp191
S'46'
p192
aS'69'
p193
ag12
ag42
aa(lp194
S'46'
p195
aS'62'
p196
ag29
ag42
aa(lp197
S'46'
p198
aS'65'
p199
aS'20'
p200
ag42
aa(lp201
S'46'
p202
aS'62'
p203
ag4
ag5
aa(lp204
S'46'
p205
aS'58'
p206
ag12
ag5
aa(lp207
S'46'
p208
aS'63'
p209
ag4
ag5
aa(lp210
S'47'
p211
aS'63'
p212
aS'23'
p213
ag42
aa(lp214
S'47'
p215
aS'62'
p216
ag4
ag42
aa(lp217
S'47'
p218
aS'65'
p219
ag4
ag42
aa(lp220
S'47'
p221
aS'61'
p222
ag4
ag5
aa(lp223
S'47'
p224
aS'63'
p225
ag138
ag5
aa(lp226
S'47'
p227
aS'66'
p228
ag4
ag5
aa(lp229
S'47'
p230
aS'67'
p231
ag4
ag5
aa(lp232
S'47'
p233
aS'58'
p234
ag12
ag5
aa(lp235
S'47'
p236
aS'60'
p237
ag46
ag5
aa(lp238
S'47'
p239
aS'68'
p240
ag46
ag5
aa(lp241
S'47'
p242
aS'66'
p243
aS'12'
p244
ag5
aa(lp245
S'48'
p246
aS'58'
p247
aS'11'
p248
ag42
aa(lp249
S'48'
p250
aS'58'
p251
aS'11'
p252
ag42
aa(lp253
S'48'
p254
aS'67'
p255
aS'7'
p256
ag42
aa(lp257
S'48'
p258
aS'61'
p259
ag62
ag5
aa(lp260
S'48'
p261
aS'62'
p262
ag42
ag5
aa(lp263
S'48'
p264
aS'64'
p265
ag4
ag5
aa(lp266
S'48'
p267
aS'66'
p268
ag4
ag5
aa(lp269
S'49'
p270
aS'63'
p271
ag4
ag42
aa(lp272
S'49'
p273
aS'64'
p274
aS'10'
p275
ag42
aa(lp276
S'49'
p277
aS'61'
p278
ag5
ag5
aa(lp279
S'49'
p280
aS'62'
p281
ag4
ag5
aa(lp282
S'49'
p283
aS'66'
p284
ag4
ag5
aa(lp285
S'49'
p286
aS'60'
p287
ag5
ag5
aa(lp288
S'49'
p289
aS'62'
p290
ag5
ag5
aa(lp291
S'49'
p292
aS'63'
p293
ag12
ag5
aa(lp294
S'49'
p295
aS'61'
p296
ag4
ag5
aa(lp297
S'49'
p298
aS'67'
p299
ag5
ag5
aa(lp300
S'50'
p301
aS'63'
p302
aS'13'
p303
ag42
aa(lp304
S'50'
p305
aS'64'
p306
ag4
ag42
aa(lp307
S'50'
p308
aS'59'
p309
ag4
ag5
aa(lp310
S'50'
p311
aS'61'
p312
ag138
ag5
aa(lp313
S'50'
p314
aS'61'
p315
ag4
ag5
aa(lp316
S'50'
p317
aS'63'
p318
ag5
ag5
aa(lp319
S'50'
p320
aS'58'
p321
ag5
ag5
aa(lp322
S'50'
p323
aS'59'
p324
ag42
ag5
aa(lp325
S'50'
p326
aS'61'
p327
ag4
ag5
aa(lp328
S'50'
p329
aS'64'
p330
ag4
ag5
aa(lp331
S'50'
p332
aS'65'
p333
ag46
ag5
aa(lp334
S'50'
p335
aS'66'
p336
ag5
ag5
aa(lp337
S'51'
p338
aS'59'
p339
aS'13'
p340
ag42
aa(lp341
S'51'
p342
aS'59'
p343
ag12
ag42
aa(lp344
S'51'
p345
aS'64'
p346
ag256
ag5
aa(lp347
S'51'
p348
aS'59'
p349
ag5
ag5
aa(lp350
S'51'
p351
aS'65'
p352
ag4
ag5
aa(lp353
S'51'
p354
aS'66'
p355
ag5
ag5
aa(lp356
S'52'
p357
aS'69'
p358
ag12
ag42
aa(lp359
S'52'
p360
aS'59'
p361
ag42
ag42
aa(lp362
S'52'
p363
aS'62'
p364
ag12
ag42
aa(lp365
S'52'
p366
aS'66'
p367
ag46
ag42
aa(lp368
S'52'
p369
aS'61'
p370
ag4
ag5
aa(lp371
S'52'
p372
aS'63'
p373
ag46
ag5
aa(lp374
S'52'
p375
aS'69'
p376
ag4
ag5
aa(lp377
S'52'
p378
aS'60'
p379
ag46
ag5
aa(lp380
S'52'
p381
aS'60'
p382
ag29
ag5
aa(lp383
S'52'
p384
aS'62'
p385
ag4
ag5
aa(lp386
S'52'
p387
aS'62'
p388
ag5
ag5
aa(lp389
S'52'
p390
aS'64'
p391
ag4
ag5
aa(lp392
S'52'
p393
aS'65'
p394
ag4
ag5
aa(lp395
S'52'
p396
aS'68'
p397
ag4
ag5
aa(lp398
S'53'
p399
aS'58'
p400
ag46
ag42
aa(lp401
S'53'
p402
aS'65'
p403
ag5
ag42
aa(lp404
S'53'
p405
aS'59'
p406
ag12
ag42
aa(lp407
S'53'
p408
aS'60'
p409
ag142
ag42
aa(lp410
S'53'
p411
aS'63'
p412
aS'24'
p413
ag42
aa(lp414
S'53'
p415
aS'65'
p416
aS'12'
p417
ag42
aa(lp418
S'53'
p419
aS'58'
p420
ag5
ag5
aa(lp421
S'53'
p422
aS'60'
p423
ag5
ag5
aa(lp424
S'53'
p425
aS'60'
p426
ag42
ag5
aa(lp427
S'53'
p428
aS'61'
p429
ag5
ag5
aa(lp430
S'53'
p431
aS'63'
p432
ag4
ag5
aa(lp433
S'54'
p434
aS'60'
p435
aS'11'
p436
ag42
aa(lp437
S'54'
p438
aS'65'
p439
aS'23'
p440
ag42
aa(lp441
S'54'
p442
aS'65'
p443
ag29
ag42
aa(lp444
S'54'
p445
aS'68'
p446
ag256
ag42
aa(lp447
S'54'
p448
aS'59'
p449
ag256
ag5
aa(lp450
S'54'
p451
aS'60'
p452
ag12
ag5
aa(lp453
S'54'
p454
aS'66'
p455
ag4
ag5
aa(lp456
S'54'
p457
aS'67'
p458
aS'46'
p459
ag5
aa(lp460
S'54'
p461
aS'62'
p462
ag4
ag5
aa(lp463
S'54'
p464
aS'69'
p465
ag256
ag5
aa(lp466
S'54'
p467
aS'63'
p468
aS'19'
p469
ag5
aa(lp470
S'54'
p471
aS'58'
p472
ag5
ag5
aa(lp473
S'54'
p474
aS'62'
p475
ag4
ag5
aa(lp476
S'55'
p477
aS'63'
p478
ag138
ag42
aa(lp479
S'55'
p480
aS'68'
p481
aS'15'
p482
ag42
aa(lp483
S'55'
p484
aS'58'
p485
ag5
ag5
aa(lp486
S'55'
p487
aS'58'
p488
ag4
ag5
aa(lp489
S'55'
p490
aS'58'
p491
ag5
ag5
aa(lp492
S'55'
p493
aS'66'
p494
aS'18'
p495
ag5
aa(lp496
S'55'
p497
aS'66'
p498
ag4
ag5
aa(lp499
S'55'
p500
aS'69'
p501
ag12
ag5
aa(lp502
S'55'
p503
aS'69'
p504
aS'22'
p505
ag5
aa(lp506
S'55'
p507
aS'67'
p508
ag5
ag5
aa(lp509
S'56'
p510
aS'65'
p511
ag142
ag42
aa(lp512
S'56'
p513
aS'66'
p514
ag12
ag42
aa(lp515
S'56'
p516
aS'60'
p517
ag4
ag5
aa(lp518
S'56'
p519
aS'66'
p520
ag42
ag5
aa(lp521
S'56'
p522
aS'66'
p523
ag5
ag5
aa(lp524
S'56'
p525
aS'67'
p526
ag4
ag5
aa(lp527
S'56'
p528
aS'60'
p529
ag4
ag5
aa(lp530
S'57'
p531
aS'61'
p532
ag29
ag42
aa(lp533
S'57'
p534
aS'62'
p535
aS'14'
p536
ag42
aa(lp537
S'57'
p538
aS'64'
p539
ag5
ag42
aa(lp540
S'57'
p541
aS'64'
p542
ag142
ag5
aa(lp543
S'57'
p544
aS'69'
p545
ag4
ag5
aa(lp546
S'57'
p547
aS'61'
p548
ag4
ag5
aa(lp549
S'57'
p550
aS'62'
p551
ag4
ag5
aa(lp552
S'57'
p553
aS'63'
p554
ag4
ag5
aa(lp555
S'57'
p556
aS'64'
p557
ag4
ag5
aa(lp558
S'57'
p559
aS'64'
p560
ag4
ag5
aa(lp561
S'57'
p562
aS'67'
p563
ag4
ag5
aa(lp564
S'58'
p565
aS'59'
p566
ag4
ag5
aa(lp567
S'58'
p568
aS'60'
p569
ag12
ag5
aa(lp570
S'58'
p571
aS'61'
p572
ag5
ag5
aa(lp573
S'58'
p574
aS'67'
p575
ag4
ag5
aa(lp576
S'58'
p577
aS'58'
p578
ag4
ag5
aa(lp579
S'58'
p580
aS'58'
p581
ag12
ag5
aa(lp582
S'58'
p583
aS'61'
p584
ag42
ag5
aa(lp585
S'59'
p586
aS'62'
p587
aS'35'
p588
ag42
aa(lp589
S'59'
p590
aS'60'
p591
ag4
ag5
aa(lp592
S'59'
p593
aS'63'
p594
ag4
ag5
aa(lp595
S'59'
p596
aS'64'
p597
ag5
ag5
aa(lp598
S'59'
p599
aS'64'
p600
ag46
ag5
aa(lp601
S'59'
p602
aS'64'
p603
ag4
ag5
aa(lp604
S'59'
p605
aS'64'
p606
ag256
ag5
aa(lp607
S'59'
p608
aS'67'
p609
ag12
ag5
aa(lp610
S'60'
p611
aS'59'
p612
aS'17'
p613
ag42
aa(lp614
S'60'
p615
aS'65'
p616
ag4
ag42
aa(lp617
S'60'
p618
aS'61'
p619
ag5
ag5
aa(lp620
S'60'
p621
aS'67'
p622
ag42
ag5
aa(lp623
S'60'
p624
aS'61'
p625
aS'25'
p626
ag5
aa(lp627
S'60'
p628
aS'64'
p629
ag4
ag5
aa(lp630
S'61'
p631
aS'62'
p632
ag29
ag42
aa(lp633
S'61'
p634
aS'65'
p635
ag4
ag42
aa(lp636
S'61'
p637
aS'68'
p638
ag5
ag42
aa(lp639
S'61'
p640
aS'59'
p641
ag4
ag5
aa(lp642
S'61'
p643
aS'59'
p644
ag4
ag5
aa(lp645
S'61'
p646
aS'64'
p647
ag4
ag5
aa(lp648
S'61'
p649
aS'65'
p650
ag62
ag5
aa(lp651
S'61'
p652
aS'68'
p653
ag4
ag5
aa(lp654
S'61'
p655
aS'59'
p656
ag4
ag5
aa(lp657
S'62'
p658
aS'59'
p659
aS'13'
p660
ag42
aa(lp661
S'62'
p662
aS'58'
p663
ag4
ag42
aa(lp664
S'62'
p665
aS'65'
p666
aS'19'
p667
ag42
aa(lp668
S'62'
p669
aS'62'
p670
ag138
ag5
aa(lp671
S'62'
p672
aS'66'
p673
ag4
ag5
aa(lp674
S'62'
p675
aS'66'
p676
ag4
ag5
aa(lp677
S'62'
p678
aS'58'
p679
ag4
ag5
aa(lp680
S'63'
p681
aS'60'
p682
ag5
ag42
aa(lp683
S'63'
p684
aS'61'
p685
ag4
ag5
aa(lp686
S'63'
p687
aS'62'
p688
ag4
ag5
aa(lp689
S'63'
p690
aS'63'
p691
ag4
ag5
aa(lp692
S'63'
p693
aS'63'
p694
ag4
ag5
aa(lp695
S'63'
p696
aS'66'
p697
ag4
ag5
aa(lp698
S'63'
p699
aS'61'
p700
ag142
ag5
aa(lp701
S'63'
p702
aS'61'
p703
aS'28'
p704
ag5
aa(lp705
S'64'
p706
aS'58'
p707
ag4
ag5
aa(lp708
S'64'
p709
aS'65'
p710
aS'22'
p711
ag5
aa(lp712
S'64'
p713
aS'66'
p714
ag4
ag5
aa(lp715
S'64'
p716
aS'61'
p717
ag4
ag5
aa(lp718
S'64'
p719
aS'68'
p720
ag4
ag5
aa(lp721
S'65'
p722
aS'58'
p723
ag4
ag42
aa(lp724
S'65'
p725
aS'61'
p726
ag42
ag42
aa(lp727
S'65'
p728
aS'62'
p729
aS'22'
p730
ag42
aa(lp731
S'65'
p732
aS'66'
p733
aS'15'
p734
ag42
aa(lp735
S'65'
p736
aS'58'
p737
ag4
ag5
aa(lp738
S'65'
p739
aS'64'
p740
ag4
ag5
aa(lp741
S'65'
p742
aS'67'
p743
ag4
ag5
aa(lp744
S'65'
p745
aS'59'
p746
ag42
ag5
aa(lp747
S'65'
p748
aS'64'
p749
ag4
ag5
aa(lp750
S'65'
p751
aS'67'
p752
ag5
ag5
aa(lp753
S'66'
p754
aS'58'
p755
ag4
ag42
aa(lp756
S'66'
p757
aS'61'
p758
aS'13'
p759
ag42
aa(lp760
S'66'
p761
aS'58'
p762
ag4
ag5
aa(lp763
S'66'
p764
aS'58'
p765
ag5
ag5
aa(lp766
S'66'
p767
aS'68'
p768
ag4
ag5
aa(lp769
S'67'
p770
aS'64'
p771
ag62
ag42
aa(lp772
S'67'
p773
aS'63'
p774
ag5
ag42
aa(lp775
S'67'
p776
aS'66'
p777
ag4
ag5
aa(lp778
S'67'
p779
aS'66'
p780
ag4
ag5
aa(lp781
S'67'
p782
aS'61'
p783
ag4
ag5
aa(lp784
S'67'
p785
aS'65'
p786
ag4
ag5
aa(lp787
S'68'
p788
aS'67'
p789
ag4
ag5
aa(lp790
S'68'
p791
aS'68'
p792
ag4
ag5
aa(lp793
S'69'
p794
aS'67'
p795
ag62
ag42
aa(lp796
S'69'
p797
aS'60'
p798
ag4
ag5
aa(lp799
S'69'
p800
aS'65'
p801
ag4
ag5
aa(lp802
S'69'
p803
aS'66'
p804
ag4
ag5
aa(lp805
S'70'
p806
aS'58'
p807
ag4
ag42
aa(lp808
S'70'
p809
aS'58'
p810
ag46
ag42
aa(lp811
S'70'
p812
aS'66'
p813
aS'14'
p814
ag5
aa(lp815
S'70'
p816
aS'67'
p817
ag4
ag5
aa(lp818
S'70'
p819
aS'68'
p820
ag4
ag5
aa(lp821
S'70'
p822
aS'59'
p823
ag62
ag5
aa(lp824
S'70'
p825
aS'63'
p826
ag4
ag5
aa(lp827
S'71'
p828
aS'68'
p829
ag42
ag5
aa(lp830
S'72'
p831
aS'63'
p832
ag4
ag42
aa(lp833
S'72'
p834
aS'58'
p835
ag4
ag5
aa(lp836
S'72'
p837
aS'64'
p838
ag4
ag5
aa(lp839
S'72'
p840
aS'67'
p841
ag12
ag5
aa(lp842
S'73'
p843
aS'62'
p844
ag4
ag5
aa(lp845
S'73'
p846
aS'68'
p847
ag4
ag5
aa(lp848
S'74'
p849
aS'65'
p850
ag12
ag42
aa(lp851
S'74'
p852
aS'63'
p853
ag4
ag5
aa(lp854
S'75'
p855
aS'62'
p856
ag5
ag5
aa(lp857
S'76'
p858
aS'67'
p859
ag4
ag5
aa(lp860
S'77'
p861
aS'65'
p862
ag12
ag5
aa(lp863
S'78'
p864
aS'65'
p865
ag5
ag42
aa(lp866
S'83'
p867
aS'58'
p868
ag42
ag42
aa.