(lp0
(lp1
S'Age'
p2
aS'Year'
p3
aS'positive_nodes'
p4
aS'status'
p5
aa(lp6
S'30'
p7
aS'64'
p8
aS'1'
p9
ag9
aa(lp10
S'30'
p11
aS'62'
p12
aS'3'
p13
ag9
aa(lp14
S'30'
p15
aS'65'
p16
aS'0'
p17
ag9
aa(lp18
S'31'
p19
aS'59'
p20
aS'2'
p21
ag9
aa(lp22
S'31'
p23
aS'65'
p24
aS'4'
p25
ag9
aa(lp26
S'33'
p27
aS'58'
p28
aS'10'
p29
ag9
aa(lp30
S'33'
p31
aS'60'
p32
ag17
ag9
aa(lp33
S'34'
p34
aS'59'
p35
ag17
ag21
aa(lp36
S'34'
p37
aS'66'
p38
aS'9'
p39
ag21
aa(lp40
S'34'
p41
aS'58'
p42
aS'30'
p43
ag9
aa(lp44
S'34'
p45
aS'60'
p46
ag9
ag9
aa(lp47
S'34'
p48
aS'61'
p49
aS'10'
p50
ag9
aa(lp51
S'34'
p52
aS'67'
p53
aS'7'
p54
ag9
aa(lp55
S'34'
p56
aS'60'
p57
ag17
ag9
aa(lp58
S'35'
p59
aS'64'
p60
aS'13'
p61
ag9
aa(lp62
S'35'
p63
aS'63'
p64
ag17
ag9
aa(lp65
S'36'
p66
aS'60'
p67
ag9
ag9
aa(lp68
S'36'
p69
aS'69'
p70
ag17
ag9
aa(lp71
S'37'
p72
aS'60'
p73
ag17
ag9
aa(lp74
S'37'
p75
aS'63'
p76
ag17
ag9
aa(lp77
S'37'
p78
aS'58'
p79
ag17
ag9
aa(lp80
S'37'
p81
aS'59'
p82
aS'6'
p83
ag9
aa(lp84
S'37'
p85
aS'60'
p86
aS'15'
p87
ag9
aa(lp88
S'37'
p89
aS'63'
p90
ag17
ag9
aa(lp91
S'38'
p92
aS'69'
p93
aS'21'
p94
ag21
aa(lp95
S'38'
p96
aS'59'
p97
ag21
ag9
aa(lp98
S'38'
p99
aS'60'
p100
ag17
ag9
aa(lp101
S'38'
p102
aS'60'
p103
ag17
ag9
aa(lp104
S'38'
p105
aS'62'
p106
ag13
ag9
aa(lp107
S'38'
p108
aS'64'
p109
ag9
ag9
aa(lp110
S'38'
p111
aS'66'
p112
ag17
ag9
aa(lp113
S'38'
p114
aS'66'
p115
aS'11'
p116
ag9
aa(lp117
S'38'
p118
aS'60'
p119
ag9
ag9
aa(lp120
S'38'
p121
aS'67'
p122
aS'5'
p123
ag9
aa(lp124
S'39'
p125
aS'66'
p126
ag17
ag21
aa(lp127
S'39'
p128
aS'63'
p129
ag17
ag9
aa(lp130
S'39'
p131
aS'67'
p132
ag17
ag9
aa(lp133
S'39'
p134
aS'58'
p135
ag17
ag9
aa(lp136
S'39'
p137
aS'59'
p138
ag21
ag9
aa(lp139
S'39'
p140
aS'63'
p141
ag25
ag9
aa(lp142
S'40'
p143
aS'58'
p144
ag21
ag9
aa(lp145
S'40'
p146
aS'58'
p147
ag17
ag9
aa(lp148
S'40'
p149
aS'65'
p150
ag17
ag9
aa(lp151
S'41'
p152
aS'60'
p153
aS'23'
p154
ag21
aa(lp155
S'41'
p156
aS'64'
p157
ag17
ag21
aa(lp158
S'41'
p159
aS'67'
p160
ag17
ag21
aa(lp161
S'41'
p162
aS'58'
p163
ag17
ag9
aa(lp164
S'41'
p165
aS'59'
p166
aS'8'
p167
ag9
aa(lp168
S'41'
p169
aS'59'
p170
ag17
ag9
aa(lp171
S'41'
p172
aS'64'
p173
ag17
ag9
aa(lp174
S'41'
p175
aS'69'
p176
ag167
ag9
aa(lp177
S'41'
p178
aS'65'
p179
ag17
ag9
aa(lp180
S'41'
p181
aS'65'
p182
ag17
ag9
aa(lp183
S'42'
p184
aS'69'
p185
ag9
ag21
aa(lp186
S'42'
p187
aS'59'
p188
ag17
ag21
aa(lp189
S'42'
p190
aS'58'
p191
ag17
ag9
aa(lp192
S'42'
p193
aS'60'
p194
ag9
ag9
aa(lp195
S'42'
p196
aS'59'
p197
ag21
ag9
aa(lp198
S'42'
p199
aS'61'
p200
ag25
ag9
aa(lp201
S'42'
p202
aS'62'
p203
aS'20'
p204
ag9
aa(lp205
S'42'
p206
aS'65'
p207
ag17
ag9
aa(lp208
S'42'
p209
aS'63'
p210
ag9
ag9
aa(lp211
S'43'
p212
aS'58'
p213
aS'52'
p214
ag21
aa(lp215
S'43'
p216
aS'59'
p217
ag21
ag21
aa(lp218
S'43'
p219
aS'64'
p220
ag17
ag21
aa(lp221
S'43'
p222
aS'64'
p223
ag17
ag21
aa(lp224
S'43'
p225
aS'63'
p226
aS'14'
p227
ag9
aa(lp228
S'43'
p229
aS'64'
p230
ag21
ag9
aa(lp231
S'43'
p232
aS'64'
p233
ag13
ag9
aa(lp234
S'43'
p235
aS'60'
p236
ag17
ag9
aa(lp237
S'43'
p238
aS'63'
p239
ag21
ag9
aa(lp240
S'43'
p241
aS'65'
p242
ag17
ag9
aa(lp243
S'43'
p244
aS'66'
p245
ag25
ag9
aa(lp246
S'44'
p247
aS'64'
p248
ag83
ag21
aa(lp249
S'44'
p250
aS'58'
p251
ag39
ag21
aa(lp252
S'44'
p253
aS'63'
p254
aS'19'
p255
ag21
aa(lp256
S'44'
p257
aS'61'
p258
ag17
ag9
aa(lp259
S'44'
p260
aS'63'
p261
ag9
ag9
aa(lp262
S'44'
p263
aS'61'
p264
ag17
ag9
aa(lp265
S'44'
p266
aS'67'
p267
aS'16'
p268
ag9
aa(lp269
S'45'
p270
aS'65'
p271
ag83
ag21
aa(lp272
S'45'
p273
aS'66'
p274
ag17
ag21
aa(lp275
S'45'
p276
aS'67'
p277
ag9
ag21
aa(lp278
S'45'
p279
aS'60'
p280
ag17
ag9
aa(lp281
S'45'
p282
aS'67'
p283
ag17
ag9
aa(lp284
S'45'
p285
aS'59'
p286
aS'14'
p287
ag9
aa(lp288
S'45'
p289
aS'64'
p290
ag17
ag9
aa(lp291
S'45'
p292
aS'68'
p293
ag17
ag9
aa(lp294
S'45'
p295
aS'67'
p296
ag9
ag9
aa(lp297
S'46'
p298
aS'58'
p299
ag21
ag21
aa(lp300
S'46'
p301
aS'69'
p302
ag13
ag21
aa(lp303
S'46'
p304
aS'62'
p305
ag123
ag21
aa(lp306
S'46'
p307
aS'65'
p308
aS'20'
p309
ag21
aa(lp310
S'46'
p311
aS'62'
p312
ag17
ag9
aa(lp313
S'46'
p314
aS'58'
p315
ag13
ag9
aa(lp316
S'46'
p317
aS'63'
p318
ag17
ag9
aa(lp319
S'47'
p320
aS'63'
p321
aS'23'
p322
ag21
aa(lp323
S'47'
p324
aS'62'
p325
ag17
ag21
aa(lp326
S'47'
p327
aS'65'
p328
ag17
ag21
aa(lp329
S'47'
p330
aS'61'
p331
ag17
ag9
aa(lp332
S'47'
p333
aS'63'
p334
ag83
ag9
aa(lp335
S'47'
p336
aS'66'
p337
ag17
ag9
aa(lp338
S'47'
p339
aS'67'
p340
ag17
ag9
aa(lp341
S'47'
p342
aS'58'
p343
ag13
ag9
aa(lp344
S'47'
p345
aS'60'
p346
ag25
ag9
aa(lp347
S'47'
p348
aS'68'
p349
ag25
ag9
aa(lp350
S'47'
p351
aS'66'
p352
aS'12'
p353
ag9
aa(lp354
S'48'
p355
aS'58'
p356
aS'11'
p357
ag21
aa(lp358
S'48'
p359
aS'58'
p360
aS'11'
p361
ag21
aa(lp362
S'48'
p363
aS'67'
p364
ag54
ag21
aa(lp365
S'48'
p366
aS'61'
p367
ag167
ag9
aa(lp368
S'48'
p369
aS'62'
p370
ag21
ag9
aa(lp371
S'48'
p372
aS'64'
p373
ag17
ag9
aa(lp374
S'48'
p375
aS'66'
p376
ag17
ag9
aa(lp377
S'49'
p378
aS'63'
p379
ag17
ag21
aa(lp380
S'49'
p381
aS'64'
p382
aS'10'
p383
ag21
aa(lp384
S'49'
p385
aS'61'
p386
ag9
ag9
aa(lp387
S'49'
p388
aS'62'
p389
ag17
ag9
aa(lp390
S'49'
p391
aS'66'
p392
ag17
ag9
aa(lp393
S'49'
p394
aS'60'
p395
ag9
ag9
aa(lp396
S'49'
p397
aS'62'
p398
ag9
ag9
aa(lp399
S'49'
p400
aS'63'
p401
ag13
ag9
aa(lp402
S'49'
p403
aS'61'
p404
ag17
ag9
aa(lp405
S'50'
p406
aS'63'
p407
aS'13'
p408
ag21
aa(lp409
S'50'
p410
aS'64'
p411
ag17
ag21
aa(lp412
S'52'
p413
aS'65'
p414
ag17
ag9
aa(lp415
S'52'
p416
aS'68'
p417
ag17
ag9
aa(lp418
S'53'
p419
aS'59'
p420
ag13
ag21
aa(lp421
S'53'
p422
aS'60'
p423
ag39
ag21
aa(lp424
S'53'
p425
aS'63'
p426
aS'24'
p427
ag21
aa(lp428
S'53'
p429
aS'65'
p430
aS'12'
p431
ag21
aa(lp432
S'53'
p433
aS'58'
p434
ag9
ag9
aa(lp435
S'53'
p436
aS'60'
p437
ag9
ag9
aa(lp438
S'53'
p439
aS'60'
p440
ag21
ag9
aa(lp441
S'53'
p442
aS'61'
p443
ag9
ag9
aa(lp444
S'53'
p445
aS'63'
p446
ag17
ag9
aa(lp447
S'54'
p448
aS'60'
p449
aS'11'
p450
ag21
aa(lp451
S'54'
p452
aS'65'
p453
aS'23'
p454
ag21
aa(lp455
S'54'
p456
aS'65'
p457
ag123
ag21
aa(lp458
S'54'
p459
aS'68'
p460
ag54
ag21
aa(lp461
S'54'
p462
aS'59'
p463
ag54
ag9
aa(lp464
S'54'
p465
aS'60'
p466
ag13
ag9
aa(lp467
S'54'
p468
aS'66'
p469
ag17
ag9
aa(lp470
S'54'
p471
aS'67'
p472
aS'46'
p473
ag9
aa(lp474
S'54'
p475
aS'62'
p476
ag17
ag9
aa(lp477
S'54'
p478
aS'69'
p479
ag54
ag9
aa(lp480
S'54'
p481
aS'63'
p482
aS'19'
p483
ag9
aa(lp484
S'54'
p485
aS'58'
p486
ag9
ag9
aa(lp487
S'54'
p488
aS'62'
p489
ag17
ag9
aa(lp490
S'55'
p491
aS'63'
p492
ag83
ag21
aa(lp493
S'55'
p494
aS'68'
p495
aS'15'
p496
ag21
aa(lp497
S'55'
p498
aS'58'
p499
ag9
ag9
aa(lp500
S'55'
p501
aS'58'
p502
ag17
ag9
aa(lp503
S'55'
p504
aS'58'
p505
ag9
ag9
aa(lp506
S'55'
p507
aS'66'
p508
aS'18'
p509
ag9
aa(lp510
S'55'
p511
aS'66'
p512
ag17
ag9
aa(lp513
S'55'
p514
aS'69'
p515
ag13
ag9
aa(lp516
S'55'
p517
aS'69'
p518
aS'22'
p519
ag9
aa(lp520
S'55'
p521
aS'67'
p522
ag9
ag9
aa(lp523
S'56'
p524
aS'65'
p525
ag39
ag21
aa(lp526
S'56'
p527
aS'66'
p528
ag13
ag21
aa(lp529
S'56'
p530
aS'60'
p531
ag17
ag9
aa(lp532
S'56'
p533
aS'66'
p534
ag21
ag9
aa(lp535
S'56'
p536
aS'66'
p537
ag9
ag9
aa(lp538
S'56'
p539
aS'67'
p540
ag17
ag9
aa(lp541
S'56'
p542
aS'60'
p543
ag17
ag9
aa(lp544
S'57'
p545
aS'61'
p546
ag123
ag21
aa(lp547
S'57'
p548
aS'62'
p549
aS'14'
p550
ag21
aa(lp551
S'57'
p552
aS'64'
p553
ag9
ag21
aa(lp554
S'57'
p555
aS'64'
p556
ag39
ag9
aa(lp557
S'57'
p558
aS'69'
p559
ag17
ag9
aa(lp560
S'57'
p561
aS'61'
p562
ag17
ag9
aa(lp563
S'57'
p564
aS'62'
p565
ag17
ag9
aa(lp566
S'57'
p567
aS'63'
p568
ag17
ag9
aa(lp569
S'57'
p570
aS'64'
p571
ag17
ag9
aa(lp572
S'57'
p573
aS'64'
p574
ag17
ag9
aa(lp575
S'57'
p576
aS'67'
p577
ag17
ag9
aa(lp578
S'58'
p579
aS'59'
p580
ag17
ag9
aa(lp581
S'58'
p582
aS'60'
p583
ag13
ag9
aa(lp584
S'58'
p585
aS'61'
p586
ag9
ag9
aa(lp587
S'58'
p588
aS'67'
p589
ag17
ag9
aa(lp590
S'58'
p591
aS'58'
p592
ag17
ag9
aa(lp593
S'58'
p594
aS'58'
p595
ag13
ag9
aa(lp596
S'58'
p597
aS'61'
p598
ag21
ag9
aa(lp599
S'59'
p600
aS'62'
p601
aS'35'
p602
ag21
aa(lp603
S'59'
p604
aS'60'
p605
ag17
ag9
aa(lp606
S'59'
p607
aS'63'
p608
ag17
ag9
aa(lp609
S'59'
p610
aS'64'
p611
ag9
ag9
aa(lp612
S'59'
p613
aS'64'
p614
ag25
ag9
aa(lp615
S'59'
p616
aS'64'
p617
ag17
ag9
aa(lp618
S'59'
p619
aS'64'
p620
ag54
ag9
aa(lp621
S'59'
p622
aS'67'
p623
ag13
ag9
aa(lp624
S'60'
p625
aS'59'
p626
aS'17'
p627
ag21
aa(lp628
S'60'
p629
aS'65'
p630
ag17
ag21
aa(lp631
S'60'
p632
aS'61'
p633
ag9
ag9
aa(lp634
S'60'
p635
aS'67'
p636
ag21
ag9
aa(lp637
S'60'
p638
aS'61'
p639
aS'25'
p640
ag9
aa(lp641
S'60'
p642
aS'64'
p643
ag17
ag9
aa(lp644
S'61'
p645
aS'62'
p646
ag123
ag21
aa(lp647
S'61'
p648
aS'65'
p649
ag17
ag21
aa(lp650
S'61'
p651
aS'68'
p652
ag9
ag21
aa(lp653
S'61'
p654
aS'59'
p655
ag17
ag9
aa(lp656
S'61'
p657
aS'59'
p658
ag17
ag9
aa(lp659
S'61'
p660
aS'64'
p661
ag17
ag9
aa(lp662
S'61'
p663
aS'65'
p664
ag167
ag9
aa(lp665
S'61'
p666
aS'68'
p667
ag17
ag9
aa(lp668
S'61'
p669
aS'59'
p670
ag17
ag9
aa(lp671
S'62'
p672
aS'59'
p673
aS'13'
p674
ag21
aa(lp675
S'62'
p676
aS'58'
p677
ag17
ag21
aa(lp678
S'62'
p679
aS'65'
p680
aS'19'
p681
ag21
aa(lp682
S'62'
p683
aS'62'
p684
ag83
ag9
aa(lp685
S'62'
p686
aS'66'
p687
ag17
ag9
aa(lp688
S'62'
p689
aS'66'
p690
ag17
ag9
aa(lp691
S'62'
p692
aS'58'
p693
ag17
ag9
aa(lp694
S'63'
p695
aS'60'
p696
ag9
ag21
aa(lp697
S'63'
p698
aS'61'
p699
ag17
ag9
aa(lp700
S'63'
p701
aS'62'
p702
ag17
ag9
aa(lp703
S'63'
p704
aS'63'
p705
ag17
ag9
aa(lp706
S'63'
p707
aS'63'
p708
ag17
ag9
aa(lp709
S'63'
p710
aS'66'
p711
ag17
ag9
aa(lp712
S'63'
p713
aS'61'
p714
ag39
ag9
aa(lp715
S'63'
p716
aS'61'
p717
aS'28'
p718
ag9
aa(lp719
S'64'
p720
aS'58'
p721
ag17
ag9
aa(lp722
S'64'
p723
aS'65'
p724
aS'22'
p725
ag9
aa(lp726
S'64'
p727
aS'66'
p728
ag17
ag9
aa(lp729
S'64'
p730
aS'61'
p731
ag17
ag9
aa(lp732
S'64'
p733
aS'68'
p734
ag17
ag9
aa(lp735
S'65'
p736
aS'58'
p737
ag17
ag21
aa(lp738
S'65'
p739
aS'61'
p740
ag21
ag21
aa(lp741
S'65'
p742
aS'62'
p743
aS'22'
p744
ag21
aa(lp745
S'65'
p746
aS'66'
p747
aS'15'
p748
ag21
aa(lp749
S'65'
p750
aS'58'
p751
ag17
ag9
aa(lp752
S'65'
p753
aS'64'
p754
ag17
ag9
aa(lp755
S'65'
p756
aS'67'
p757
ag17
ag9
aa(lp758
S'65'
p759
aS'59'
p760
ag21
ag9
aa(lp761
S'65'
p762
aS'64'
p763
ag17
ag9
aa(lp764
S'65'
p765
aS'67'
p766
ag9
ag9
aa(lp767
S'66'
p768
aS'58'
p769
ag17
ag21
aa(lp770
S'66'
p771
aS'61'
p772
aS'13'
p773
ag21
aa(lp774
S'66'
p775
aS'58'
p776
ag17
ag9
aa(lp777
S'66'
p778
aS'58'
p779
ag9
ag9
aa(lp780
S'66'
p781
aS'68'
p782
ag17
ag9
aa(lp783
S'67'
p784
aS'64'
p785
ag167
ag21
aa(lp786
S'67'
p787
aS'63'
p788
ag9
ag21
aa(lp789
S'67'
p790
aS'66'
p791
ag17
ag9
aa(lp792
S'67'
p793
aS'66'
p794
ag17
ag9
aa(lp795
S'67'
p796
aS'61'
p797
ag17
ag9
aa(lp798
S'67'
p799
aS'65'
p800
ag17
ag9
aa(lp801
S'68'
p802
aS'67'
p803
ag17
ag9
aa(lp804
S'68'
p805
aS'68'
p806
ag17
ag9
aa(lp807
S'69'
p808
aS'67'
p809
ag167
ag21
aa(lp810
S'69'
p811
aS'60'
p812
ag17
ag9
aa(lp813
S'69'
p814
aS'65'
p815
ag17
ag9
aa(lp816
S'69'
p817
aS'66'
p818
ag17
ag9
aa(lp819
S'70'
p820
aS'58'
p821
ag17
ag21
aa(lp822
S'70'
p823
aS'58'
p824
ag25
ag21
aa(lp825
S'70'
p826
aS'66'
p827
aS'14'
p828
ag9
aa(lp829
S'70'
p830
aS'67'
p831
ag17
ag9
aa(lp832
S'70'
p833
aS'68'
p834
ag17
ag9
aa(lp835
S'70'
p836
aS'59'
p837
ag167
ag9
aa(lp838
S'70'
p839
aS'63'
p840
ag17
ag9
aa(lp841
S'71'
p842
aS'68'
p843
ag21
ag9
aa(lp844
S'72'
p845
aS'63'
p846
ag17
ag21
aa(lp847
S'72'
p848
aS'58'
p849
ag17
ag9
aa(lp850
S'72'
p851
aS'64'
p852
ag17
ag9
aa(lp853
S'72'
p854
aS'67'
p855
ag13
ag9
aa(lp856
S'73'
p857
aS'62'
p858
ag17
ag9
aa(lp859
S'73'
p860
aS'68'
p861
ag17
ag9
aa(lp862
S'74'
p863
aS'65'
p864
ag13
ag21
aa(lp865
S'74'
p866
aS'63'
p867
ag17
ag9
aa(lp868
S'75'
p869
aS'62'
p870
ag9
ag9
aa(lp871
S'76'
p872
aS'67'
p873
ag17
ag9
aa(lp874
S'77'
p875
aS'65'
p876
ag13
ag9
aa(lp877
S'78'
p878
aS'65'
p879
ag9
ag21
aa(lp880
S'83'
p881
aS'58'
p882
ag21
ag21
aag1
ag6
ag10
ag14
ag18
ag22
ag26
ag30
ag33
ag36
ag40
ag44
ag47
ag51
ag55
ag58
ag62
ag65
ag68
ag71
ag74
ag77
ag80
ag84
ag88
ag91
ag95
ag98
ag101
ag104
ag107
ag110
ag113
ag117
ag120
ag124
ag127
ag130
ag133
ag136
ag139
ag142
ag145
ag148
ag151
ag155
ag158
ag161
ag164
ag168
ag171
ag174
ag177
ag180
ag183
ag186
ag189
ag192
ag195
ag198
ag201
ag205
ag208
ag211
ag215
ag218
ag221
ag224
ag228
ag231
ag234
ag237
ag240
ag243
ag246
ag249
ag252
ag256
ag259
ag262
ag265
ag269
ag272
ag275
ag278
ag281
ag284
ag288
ag291
ag294
ag297
ag300
ag303
ag306
ag310
ag313
ag316
ag319
ag323
ag326
ag329
ag332
ag335
ag338
ag341
ag344
ag347
ag350
ag354
ag358
ag362
ag365
ag368
ag371
ag374
ag377
ag380
ag384
ag387
ag390
ag393
ag396
ag399
ag402
ag405
ag409
ag412
ag415
ag418
ag421
ag424
ag428
ag432
ag435
ag438
ag441
ag444
ag447
ag451
ag455
ag458
ag461
ag464
ag467
ag470
ag474
ag477
ag480
ag484
ag487
ag490
ag493
ag497
ag500
ag503
ag506
ag510
ag513
ag516
ag520
ag523
ag526
ag529
ag532
ag535
ag538
ag541
ag544
ag547
ag551
ag554
ag557
ag560
ag563
ag566
ag569
ag572
ag575
ag578
ag581
ag584
ag587
ag590
ag593
ag596
ag599
ag603
ag606
ag609
ag612
ag615
ag618
ag621
ag624
ag628
ag631
ag634
ag637
ag641
ag644
ag647
ag650
ag653
ag656
ag659
ag662
ag665
ag668
ag671
ag675
ag678
ag682
ag685
ag688
ag691
ag694
ag697
ag700
ag703
ag706
ag709
ag712
ag715
ag719
ag722
ag726
ag729
ag732
ag735
ag738
ag741
ag745
ag749
ag752
ag755
ag758
ag761
ag764
ag767
ag770
ag774
ag777
ag780
ag783
ag786
ag789
ag792
ag795
ag798
ag801
ag804
ag807
ag810
ag813
ag816
ag819
ag822
ag825
ag829
ag832
ag835
ag838
ag841
ag844
ag847
ag850
ag853
ag856
ag859
ag862
ag865
ag868
ag871
ag874
ag877
ag880
a.