(lp0
(lp1
S'Age'
p2
aS'Year'
p3
aS'positive_nodes'
p4
aS'status'
p5
aa(lp6
S'30'
p7
aS'64'
p8
aS'1'
p9
ag9
aa(lp10
S'30'
p11
aS'62'
p12
aS'3'
p13
ag9
aa(lp14
S'30'
p15
aS'65'
p16
aS'0'
p17
ag9
aa(lp18
S'31'
p19
aS'59'
p20
aS'2'
p21
ag9
aa(lp22
S'31'
p23
aS'65'
p24
aS'4'
p25
ag9
aa(lp26
S'33'
p27
aS'58'
p28
aS'10'
p29
ag9
aa(lp30
S'33'
p31
aS'60'
p32
ag17
ag9
aa(lp33
S'34'
p34
aS'59'
p35
ag17
ag21
aa(lp36
S'34'
p37
aS'66'
p38
aS'9'
p39
ag21
aa(lp40
S'34'
p41
aS'58'
p42
aS'30'
p43
ag9
aa(lp44
S'34'
p45
aS'60'
p46
ag9
ag9
aa(lp47
S'34'
p48
aS'61'
p49
aS'10'
p50
ag9
aa(lp51
S'34'
p52
aS'67'
p53
aS'7'
p54
ag9
aa(lp55
S'34'
p56
aS'60'
p57
ag17
ag9
aa(lp58
S'35'
p59
aS'64'
p60
aS'13'
p61
ag9
aa(lp62
S'35'
p63
aS'63'
p64
ag17
ag9
aa(lp65
S'36'
p66
aS'60'
p67
ag9
ag9
aa(lp68
S'36'
p69
aS'69'
p70
ag17
ag9
aa(lp71
S'37'
p72
aS'60'
p73
ag17
ag9
aa(lp74
S'37'
p75
aS'63'
p76
ag17
ag9
aa(lp77
S'37'
p78
aS'58'
p79
ag17
ag9
aa(lp80
S'37'
p81
aS'59'
p82
aS'6'
p83
ag9
aa(lp84
S'37'
p85
aS'60'
p86
aS'15'
p87
ag9
aa(lp88
S'37'
p89
aS'63'
p90
ag17
ag9
aa(lp91
S'38'
p92
aS'69'
p93
aS'21'
p94
ag21
aa(lp95
S'38'
p96
aS'59'
p97
ag21
ag9
aa(lp98
S'38'
p99
aS'60'
p100
ag17
ag9
aa(lp101
S'38'
p102
aS'60'
p103
ag17
ag9
aa(lp104
S'38'
p105
aS'62'
p106
ag13
ag9
aa(lp107
S'38'
p108
aS'64'
p109
ag9
ag9
aa(lp110
S'38'
p111
aS'66'
p112
ag17
ag9
aa(lp113
S'38'
p114
aS'66'
p115
aS'11'
p116
ag9
aa(lp117
S'38'
p118
aS'60'
p119
ag9
ag9
aa(lp120
S'38'
p121
aS'67'
p122
aS'5'
p123
ag9
aa(lp124
S'39'
p125
aS'66'
p126
ag17
ag21
aa(lp127
S'39'
p128
aS'63'
p129
ag17
ag9
aa(lp130
S'39'
p131
aS'67'
p132
ag17
ag9
aa(lp133
S'39'
p134
aS'58'
p135
ag17
ag9
aa(lp136
S'39'
p137
aS'59'
p138
ag21
ag9
aa(lp139
S'39'
p140
aS'63'
p141
ag25
ag9
aa(lp142
S'40'
p143
aS'58'
p144
ag21
ag9
aa(lp145
S'40'
p146
aS'58'
p147
ag17
ag9
aa(lp148
S'40'
p149
aS'65'
p150
ag17
ag9
aa(lp151
S'41'
p152
aS'60'
p153
aS'23'
p154
ag21
aa(lp155
S'41'
p156
aS'64'
p157
ag17
ag21
aa(lp158
S'41'
p159
aS'67'
p160
ag17
ag21
aa(lp161
S'41'
p162
aS'58'
p163
ag17
ag9
aa(lp164
S'41'
p165
aS'59'
p166
aS'8'
p167
ag9
aa(lp168
S'41'
p169
aS'59'
p170
ag17
ag9
aa(lp171
S'41'
p172
aS'64'
p173
ag17
ag9
aa(lp174
S'41'
p175
aS'69'
p176
ag167
ag9
aa(lp177
S'41'
p178
aS'65'
p179
ag17
ag9
aa(lp180
S'41'
p181
aS'65'
p182
ag17
ag9
aa(lp183
S'42'
p184
aS'69'
p185
ag9
ag21
aa(lp186
S'42'
p187
aS'59'
p188
ag17
ag21
aa(lp189
S'42'
p190
aS'58'
p191
ag17
ag9
aa(lp192
S'42'
p193
aS'60'
p194
ag9
ag9
aa(lp195
S'42'
p196
aS'59'
p197
ag21
ag9
aa(lp198
S'42'
p199
aS'61'
p200
ag25
ag9
aa(lp201
S'42'
p202
aS'62'
p203
aS'20'
p204
ag9
aa(lp205
S'42'
p206
aS'65'
p207
ag17
ag9
aa(lp208
S'42'
p209
aS'63'
p210
ag9
ag9
aa(lp211
S'43'
p212
aS'58'
p213
aS'52'
p214
ag21
aa(lp215
S'43'
p216
aS'59'
p217
ag21
ag21
aa(lp218
S'43'
p219
aS'64'
p220
ag17
ag21
aa(lp221
S'43'
p222
aS'64'
p223
ag17
ag21
aa(lp224
S'43'
p225
aS'63'
p226
aS'14'
p227
ag9
aa(lp228
S'43'
p229
aS'64'
p230
ag21
ag9
aa(lp231
S'43'
p232
aS'64'
p233
ag13
ag9
aa(lp234
S'43'
p235
aS'60'
p236
ag17
ag9
aa(lp237
S'43'
p238
aS'63'
p239
ag21
ag9
aa(lp240
S'43'
p241
aS'65'
p242
ag17
ag9
aa(lp243
S'43'
p244
aS'66'
p245
ag25
ag9
aa(lp246
S'44'
p247
aS'64'
p248
ag83
ag21
aa(lp249
S'44'
p250
aS'58'
p251
ag39
ag21
aa(lp252
S'44'
p253
aS'63'
p254
aS'19'
p255
ag21
aa(lp256
S'44'
p257
aS'61'
p258
ag17
ag9
aa(lp259
S'44'
p260
aS'63'
p261
ag9
ag9
aa(lp262
S'44'
p263
aS'61'
p264
ag17
ag9
aa(lp265
S'44'
p266
aS'67'
p267
aS'16'
p268
ag9
aa(lp269
S'45'
p270
aS'65'
p271
ag83
ag21
aa(lp272
S'45'
p273
aS'66'
p274
ag17
ag21
aa(lp275
S'45'
p276
aS'67'
p277
ag9
ag21
aa(lp278
S'45'
p279
aS'60'
p280
ag17
ag9
aa(lp281
S'45'
p282
aS'67'
p283
ag17
ag9
aa(lp284
S'45'
p285
aS'59'
p286
aS'14'
p287
ag9
aa(lp288
S'45'
p289
aS'64'
p290
ag17
ag9
aa(lp291
S'45'
p292
aS'68'
p293
ag17
ag9
aa(lp294
S'46'
p295
aS'58'
p296
ag21
ag21
aa(lp297
S'46'
p298
aS'69'
p299
ag13
ag21
aa(lp300
S'46'
p301
aS'62'
p302
ag123
ag21
aa(lp303
S'46'
p304
aS'65'
p305
aS'20'
p306
ag21
aa(lp307
S'47'
p308
aS'63'
p309
aS'23'
p310
ag21
aa(lp311
S'47'
p312
aS'62'
p313
ag17
ag21
aa(lp314
S'49'
p315
aS'67'
p316
ag9
ag9
aa(lp317
S'50'
p318
aS'59'
p319
ag17
ag9
aa(lp320
S'50'
p321
aS'61'
p322
ag83
ag9
aa(lp323
S'50'
p324
aS'61'
p325
ag17
ag9
aa(lp326
S'50'
p327
aS'63'
p328
ag9
ag9
aa(lp329
S'50'
p330
aS'58'
p331
ag9
ag9
aa(lp332
S'50'
p333
aS'59'
p334
ag21
ag9
aa(lp335
S'50'
p336
aS'61'
p337
ag17
ag9
aa(lp338
S'50'
p339
aS'64'
p340
ag17
ag9
aa(lp341
S'50'
p342
aS'65'
p343
ag25
ag9
aa(lp344
S'50'
p345
aS'66'
p346
ag9
ag9
aa(lp347
S'51'
p348
aS'59'
p349
aS'13'
p350
ag21
aa(lp351
S'51'
p352
aS'59'
p353
ag13
ag21
aa(lp354
S'51'
p355
aS'64'
p356
ag54
ag9
aa(lp357
S'51'
p358
aS'59'
p359
ag9
ag9
aa(lp360
S'51'
p361
aS'65'
p362
ag17
ag9
aa(lp363
S'51'
p364
aS'66'
p365
ag9
ag9
aa(lp366
S'52'
p367
aS'69'
p368
ag13
ag21
aa(lp369
S'52'
p370
aS'59'
p371
ag21
ag21
aa(lp372
S'52'
p373
aS'62'
p374
ag13
ag21
aa(lp375
S'52'
p376
aS'66'
p377
ag25
ag21
aa(lp378
S'52'
p379
aS'61'
p380
ag17
ag9
aa(lp381
S'52'
p382
aS'63'
p383
ag25
ag9
aa(lp384
S'52'
p385
aS'69'
p386
ag17
ag9
aa(lp387
S'52'
p388
aS'60'
p389
ag25
ag9
aa(lp390
S'52'
p391
aS'60'
p392
ag123
ag9
aa(lp393
S'52'
p394
aS'62'
p395
ag17
ag9
aa(lp396
S'52'
p397
aS'62'
p398
ag9
ag9
aa(lp399
S'52'
p400
aS'64'
p401
ag17
ag9
aa(lp402
S'52'
p403
aS'65'
p404
ag17
ag9
aa(lp405
S'52'
p406
aS'68'
p407
ag17
ag9
aa(lp408
S'53'
p409
aS'58'
p410
ag25
ag21
aa(lp411
S'53'
p412
aS'65'
p413
ag9
ag21
aa(lp414
S'53'
p415
aS'59'
p416
ag13
ag21
aa(lp417
S'53'
p418
aS'60'
p419
ag39
ag21
aa(lp420
S'53'
p421
aS'63'
p422
aS'24'
p423
ag21
aa(lp424
S'53'
p425
aS'65'
p426
aS'12'
p427
ag21
aa(lp428
S'53'
p429
aS'58'
p430
ag9
ag9
aa(lp431
S'53'
p432
aS'60'
p433
ag9
ag9
aa(lp434
S'53'
p435
aS'60'
p436
ag21
ag9
aa(lp437
S'53'
p438
aS'61'
p439
ag9
ag9
aa(lp440
S'53'
p441
aS'63'
p442
ag17
ag9
aa(lp443
S'54'
p444
aS'60'
p445
aS'11'
p446
ag21
aa(lp447
S'54'
p448
aS'65'
p449
aS'23'
p450
ag21
aa(lp451
S'54'
p452
aS'65'
p453
ag123
ag21
aa(lp454
S'54'
p455
aS'68'
p456
ag54
ag21
aa(lp457
S'54'
p458
aS'59'
p459
ag54
ag9
aa(lp460
S'54'
p461
aS'60'
p462
ag13
ag9
aa(lp463
S'54'
p464
aS'66'
p465
ag17
ag9
aa(lp466
S'54'
p467
aS'67'
p468
aS'46'
p469
ag9
aa(lp470
S'54'
p471
aS'62'
p472
ag17
ag9
aa(lp473
S'54'
p474
aS'69'
p475
ag54
ag9
aa(lp476
S'54'
p477
aS'63'
p478
aS'19'
p479
ag9
aa(lp480
S'54'
p481
aS'58'
p482
ag9
ag9
aa(lp483
S'54'
p484
aS'62'
p485
ag17
ag9
aa(lp486
S'55'
p487
aS'63'
p488
ag83
ag21
aa(lp489
S'55'
p490
aS'68'
p491
aS'15'
p492
ag21
aa(lp493
S'55'
p494
aS'58'
p495
ag9
ag9
aa(lp496
S'55'
p497
aS'58'
p498
ag17
ag9
aa(lp499
S'55'
p500
aS'58'
p501
ag9
ag9
aa(lp502
S'55'
p503
aS'66'
p504
aS'18'
p505
ag9
aa(lp506
S'55'
p507
aS'66'
p508
ag17
ag9
aa(lp509
S'55'
p510
aS'69'
p511
ag13
ag9
aa(lp512
S'55'
p513
aS'69'
p514
aS'22'
p515
ag9
aa(lp516
S'55'
p517
aS'67'
p518
ag9
ag9
aa(lp519
S'56'
p520
aS'65'
p521
ag39
ag21
aa(lp522
S'56'
p523
aS'66'
p524
ag13
ag21
aa(lp525
S'56'
p526
aS'60'
p527
ag17
ag9
aa(lp528
S'56'
p529
aS'66'
p530
ag21
ag9
aa(lp531
S'56'
p532
aS'66'
p533
ag9
ag9
aa(lp534
S'56'
p535
aS'67'
p536
ag17
ag9
aa(lp537
S'56'
p538
aS'60'
p539
ag17
ag9
aa(lp540
S'57'
p541
aS'61'
p542
ag123
ag21
aa(lp543
S'57'
p544
aS'62'
p545
aS'14'
p546
ag21
aa(lp547
S'57'
p548
aS'64'
p549
ag9
ag21
aa(lp550
S'57'
p551
aS'64'
p552
ag39
ag9
aa(lp553
S'57'
p554
aS'69'
p555
ag17
ag9
aa(lp556
S'57'
p557
aS'61'
p558
ag17
ag9
aa(lp559
S'57'
p560
aS'62'
p561
ag17
ag9
aa(lp562
S'57'
p563
aS'63'
p564
ag17
ag9
aa(lp565
S'57'
p566
aS'64'
p567
ag17
ag9
aa(lp568
S'57'
p569
aS'64'
p570
ag17
ag9
aa(lp571
S'57'
p572
aS'67'
p573
ag17
ag9
aa(lp574
S'58'
p575
aS'59'
p576
ag17
ag9
aa(lp577
S'58'
p578
aS'60'
p579
ag13
ag9
aa(lp580
S'58'
p581
aS'61'
p582
ag9
ag9
aa(lp583
S'58'
p584
aS'67'
p585
ag17
ag9
aa(lp586
S'58'
p587
aS'58'
p588
ag17
ag9
aa(lp589
S'58'
p590
aS'58'
p591
ag13
ag9
aa(lp592
S'58'
p593
aS'61'
p594
ag21
ag9
aa(lp595
S'59'
p596
aS'62'
p597
aS'35'
p598
ag21
aa(lp599
S'59'
p600
aS'60'
p601
ag17
ag9
aa(lp602
S'59'
p603
aS'63'
p604
ag17
ag9
aa(lp605
S'59'
p606
aS'64'
p607
ag9
ag9
aa(lp608
S'59'
p609
aS'64'
p610
ag25
ag9
aa(lp611
S'59'
p612
aS'64'
p613
ag17
ag9
aa(lp614
S'59'
p615
aS'64'
p616
ag54
ag9
aa(lp617
S'59'
p618
aS'67'
p619
ag13
ag9
aa(lp620
S'60'
p621
aS'59'
p622
aS'17'
p623
ag21
aa(lp624
S'60'
p625
aS'65'
p626
ag17
ag21
aa(lp627
S'60'
p628
aS'61'
p629
ag9
ag9
aa(lp630
S'60'
p631
aS'67'
p632
ag21
ag9
aa(lp633
S'60'
p634
aS'61'
p635
aS'25'
p636
ag9
aa(lp637
S'60'
p638
aS'64'
p639
ag17
ag9
aa(lp640
S'61'
p641
aS'62'
p642
ag123
ag21
aa(lp643
S'61'
p644
aS'65'
p645
ag17
ag21
aa(lp646
S'61'
p647
aS'68'
p648
ag9
ag21
aa(lp649
S'61'
p650
aS'59'
p651
ag17
ag9
aa(lp652
S'61'
p653
aS'59'
p654
ag17
ag9
aa(lp655
S'61'
p656
aS'64'
p657
ag17
ag9
aa(lp658
S'61'
p659
aS'65'
p660
ag167
ag9
aa(lp661
S'61'
p662
aS'68'
p663
ag17
ag9
aa(lp664
S'61'
p665
aS'59'
p666
ag17
ag9
aa(lp667
S'62'
p668
aS'59'
p669
aS'13'
p670
ag21
aa(lp671
S'62'
p672
aS'58'
p673
ag17
ag21
aa(lp674
S'62'
p675
aS'65'
p676
aS'19'
p677
ag21
aa(lp678
S'62'
p679
aS'62'
p680
ag83
ag9
aa(lp681
S'62'
p682
aS'66'
p683
ag17
ag9
aa(lp684
S'62'
p685
aS'66'
p686
ag17
ag9
aa(lp687
S'62'
p688
aS'58'
p689
ag17
ag9
aa(lp690
S'63'
p691
aS'60'
p692
ag9
ag21
aa(lp693
S'63'
p694
aS'61'
p695
ag17
ag9
aa(lp696
S'63'
p697
aS'62'
p698
ag17
ag9
aa(lp699
S'63'
p700
aS'63'
p701
ag17
ag9
aa(lp702
S'63'
p703
aS'63'
p704
ag17
ag9
aa(lp705
S'63'
p706
aS'66'
p707
ag17
ag9
aa(lp708
S'63'
p709
aS'61'
p710
ag39
ag9
aa(lp711
S'63'
p712
aS'61'
p713
aS'28'
p714
ag9
aa(lp715
S'64'
p716
aS'58'
p717
ag17
ag9
aa(lp718
S'64'
p719
aS'65'
p720
aS'22'
p721
ag9
aa(lp722
S'64'
p723
aS'66'
p724
ag17
ag9
aa(lp725
S'64'
p726
aS'61'
p727
ag17
ag9
aa(lp728
S'64'
p729
aS'68'
p730
ag17
ag9
aa(lp731
S'65'
p732
aS'58'
p733
ag17
ag21
aa(lp734
S'65'
p735
aS'61'
p736
ag21
ag21
aa(lp737
S'65'
p738
aS'62'
p739
aS'22'
p740
ag21
aa(lp741
S'65'
p742
aS'66'
p743
aS'15'
p744
ag21
aa(lp745
S'65'
p746
aS'58'
p747
ag17
ag9
aa(lp748
S'65'
p749
aS'64'
p750
ag17
ag9
aa(lp751
S'65'
p752
aS'67'
p753
ag17
ag9
aa(lp754
S'65'
p755
aS'59'
p756
ag21
ag9
aa(lp757
S'65'
p758
aS'64'
p759
ag17
ag9
aa(lp760
S'65'
p761
aS'67'
p762
ag9
ag9
aa(lp763
S'66'
p764
aS'58'
p765
ag17
ag21
aa(lp766
S'66'
p767
aS'61'
p768
aS'13'
p769
ag21
aa(lp770
S'66'
p771
aS'58'
p772
ag17
ag9
aa(lp773
S'66'
p774
aS'58'
p775
ag9
ag9
aa(lp776
S'66'
p777
aS'68'
p778
ag17
ag9
aa(lp779
S'67'
p780
aS'64'
p781
ag167
ag21
aa(lp782
S'67'
p783
aS'63'
p784
ag9
ag21
aa(lp785
S'67'
p786
aS'66'
p787
ag17
ag9
aa(lp788
S'67'
p789
aS'66'
p790
ag17
ag9
aa(lp791
S'67'
p792
aS'61'
p793
ag17
ag9
aa(lp794
S'67'
p795
aS'65'
p796
ag17
ag9
aa(lp797
S'68'
p798
aS'67'
p799
ag17
ag9
aa(lp800
S'68'
p801
aS'68'
p802
ag17
ag9
aa(lp803
S'69'
p804
aS'67'
p805
ag167
ag21
aa(lp806
S'69'
p807
aS'60'
p808
ag17
ag9
aa(lp809
S'69'
p810
aS'65'
p811
ag17
ag9
aa(lp812
S'69'
p813
aS'66'
p814
ag17
ag9
aa(lp815
S'70'
p816
aS'58'
p817
ag17
ag21
aa(lp818
S'70'
p819
aS'58'
p820
ag25
ag21
aa(lp821
S'70'
p822
aS'66'
p823
aS'14'
p824
ag9
aa(lp825
S'70'
p826
aS'67'
p827
ag17
ag9
aa(lp828
S'70'
p829
aS'68'
p830
ag17
ag9
aa(lp831
S'70'
p832
aS'59'
p833
ag167
ag9
aa(lp834
S'70'
p835
aS'63'
p836
ag17
ag9
aa(lp837
S'71'
p838
aS'68'
p839
ag21
ag9
aa(lp840
S'72'
p841
aS'63'
p842
ag17
ag21
aa(lp843
S'72'
p844
aS'58'
p845
ag17
ag9
aa(lp846
S'72'
p847
aS'64'
p848
ag17
ag9
aa(lp849
S'72'
p850
aS'67'
p851
ag13
ag9
aa(lp852
S'73'
p853
aS'62'
p854
ag17
ag9
aa(lp855
S'73'
p856
aS'68'
p857
ag17
ag9
aa(lp858
S'74'
p859
aS'65'
p860
ag13
ag21
aa(lp861
S'74'
p862
aS'63'
p863
ag17
ag9
aa(lp864
S'75'
p865
aS'62'
p866
ag9
ag9
aa(lp867
S'76'
p868
aS'67'
p869
ag17
ag9
aa(lp870
S'77'
p871
aS'65'
p872
ag13
ag9
aa(lp873
S'78'
p874
aS'65'
p875
ag9
ag21
aa(lp876
S'83'
p877
aS'58'
p878
ag21
ag21
aag1
ag6
ag10
ag14
ag18
ag22
ag26
ag30
ag33
ag36
ag40
ag44
ag47
ag51
ag55
ag58
ag62
ag65
ag68
ag71
ag74
ag77
ag80
ag84
ag88
ag91
ag95
ag98
ag101
ag104
ag107
ag110
ag113
ag117
ag120
ag124
ag127
ag130
ag133
ag136
ag139
ag142
ag145
ag148
ag151
ag155
ag158
ag161
ag164
ag168
ag171
ag174
ag177
ag180
ag183
ag186
ag189
ag192
ag195
ag198
ag201
ag205
ag208
ag211
ag215
ag218
ag221
ag224
ag228
ag231
ag234
ag237
ag240
ag243
ag246
ag249
ag252
ag256
ag259
ag262
ag265
ag269
ag272
ag275
ag278
ag281
ag284
ag288
ag291
ag294
ag297
ag300
ag303
ag307
ag311
ag314
ag317
ag320
ag323
ag326
ag329
ag332
ag335
ag338
ag341
ag344
ag347
ag351
ag354
ag357
ag360
ag363
ag366
ag369
ag372
ag375
ag378
ag381
ag384
ag387
ag390
ag393
ag396
ag399
ag402
ag405
ag408
ag411
ag414
ag417
ag420
ag424
ag428
ag431
ag434
ag437
ag440
ag443
ag447
ag451
ag454
ag457
ag460
ag463
ag466
ag470
ag473
ag476
ag480
ag483
ag486
ag489
ag493
ag496
ag499
ag502
ag506
ag509
ag512
ag516
ag519
ag522
ag525
ag528
ag531
ag534
ag537
ag540
ag543
ag547
ag550
ag553
ag556
ag559
ag562
ag565
ag568
ag571
ag574
ag577
ag580
ag583
ag586
ag589
ag592
ag595
ag599
ag602
ag605
ag608
ag611
ag614
ag617
ag620
ag624
ag627
ag630
ag633
ag637
ag640
ag643
ag646
ag649
ag652
ag655
ag658
ag661
ag664
ag667
ag671
ag674
ag678
ag681
ag684
ag687
ag690
ag693
ag696
ag699
ag702
ag705
ag708
ag711
ag715
ag718
ag722
ag725
ag728
ag731
ag734
ag737
ag741
ag745
ag748
ag751
ag754
ag757
ag760
ag763
ag766
ag770
ag773
ag776
ag779
ag782
ag785
ag788
ag791
ag794
ag797
ag800
ag803
ag806
ag809
ag812
ag815
ag818
ag821
ag825
ag828
ag831
ag834
ag837
ag840
ag843
ag846
ag849
ag852
ag855
ag858
ag861
ag864
ag867
ag870
ag873
ag876
a.