(lp0
(lp1
S'Age'
p2
aS'Year'
p3
aS'positive_nodes'
p4
aS'status'
p5
aa(lp6
S'30'
p7
aS'64'
p8
aS'1'
p9
ag9
aa(lp10
S'30'
p11
aS'62'
p12
aS'3'
p13
ag9
aa(lp14
S'30'
p15
aS'65'
p16
aS'0'
p17
ag9
aa(lp18
S'31'
p19
aS'59'
p20
aS'2'
p21
ag9
aa(lp22
S'31'
p23
aS'65'
p24
aS'4'
p25
ag9
aa(lp26
S'33'
p27
aS'58'
p28
aS'10'
p29
ag9
aa(lp30
S'33'
p31
aS'60'
p32
ag17
ag9
aa(lp33
S'34'
p34
aS'59'
p35
ag17
ag21
aa(lp36
S'34'
p37
aS'66'
p38
aS'9'
p39
ag21
aa(lp40
S'34'
p41
aS'58'
p42
aS'30'
p43
ag9
aa(lp44
S'34'
p45
aS'60'
p46
ag9
ag9
aa(lp47
S'34'
p48
aS'61'
p49
aS'10'
p50
ag9
aa(lp51
S'34'
p52
aS'67'
p53
aS'7'
p54
ag9
aa(lp55
S'34'
p56
aS'60'
p57
ag17
ag9
aa(lp58
S'35'
p59
aS'64'
p60
aS'13'
p61
ag9
aa(lp62
S'35'
p63
aS'63'
p64
ag17
ag9
aa(lp65
S'36'
p66
aS'60'
p67
ag9
ag9
aa(lp68
S'36'
p69
aS'69'
p70
ag17
ag9
aa(lp71
S'37'
p72
aS'60'
p73
ag17
ag9
aa(lp74
S'37'
p75
aS'63'
p76
ag17
ag9
aa(lp77
S'37'
p78
aS'58'
p79
ag17
ag9
aa(lp80
S'37'
p81
aS'59'
p82
aS'6'
p83
ag9
aa(lp84
S'37'
p85
aS'60'
p86
aS'15'
p87
ag9
aa(lp88
S'37'
p89
aS'63'
p90
ag17
ag9
aa(lp91
S'38'
p92
aS'69'
p93
aS'21'
p94
ag21
aa(lp95
S'38'
p96
aS'59'
p97
ag21
ag9
aa(lp98
S'38'
p99
aS'60'
p100
ag17
ag9
aa(lp101
S'38'
p102
aS'60'
p103
ag17
ag9
aa(lp104
S'38'
p105
aS'62'
p106
ag13
ag9
aa(lp107
S'38'
p108
aS'64'
p109
ag9
ag9
aa(lp110
S'38'
p111
aS'66'
p112
ag17
ag9
aa(lp113
S'38'
p114
aS'66'
p115
aS'11'
p116
ag9
aa(lp117
S'38'
p118
aS'60'
p119
ag9
ag9
aa(lp120
S'38'
p121
aS'67'
p122
aS'5'
p123
ag9
aa(lp124
S'39'
p125
aS'66'
p126
ag17
ag21
aa(lp127
S'39'
p128
aS'63'
p129
ag17
ag9
aa(lp130
S'39'
p131
aS'67'
p132
ag17
ag9
aa(lp133
S'39'
p134
aS'58'
p135
ag17
ag9
aa(lp136
S'39'
p137
aS'59'
p138
ag21
ag9
aa(lp139
S'39'
p140
aS'63'
p141
ag25
ag9
aa(lp142
S'40'
p143
aS'58'
p144
ag21
ag9
aa(lp145
S'40'
p146
aS'58'
p147
ag17
ag9
aa(lp148
S'40'
p149
aS'65'
p150
ag17
ag9
aa(lp151
S'41'
p152
aS'60'
p153
aS'23'
p154
ag21
aa(lp155
S'41'
p156
aS'64'
p157
ag17
ag21
aa(lp158
S'41'
p159
aS'67'
p160
ag17
ag21
aa(lp161
S'41'
p162
aS'58'
p163
ag17
ag9
aa(lp164
S'41'
p165
aS'59'
p166
aS'8'
p167
ag9
aa(lp168
S'41'
p169
aS'59'
p170
ag17
ag9
aa(lp171
S'41'
p172
aS'64'
p173
ag17
ag9
aa(lp174
S'41'
p175
aS'69'
p176
ag167
ag9
aa(lp177
S'41'
p178
aS'65'
p179
ag17
ag9
aa(lp180
S'41'
p181
aS'65'
p182
ag17
ag9
aa(lp183
S'42'
p184
aS'69'
p185
ag9
ag21
aa(lp186
S'42'
p187
aS'59'
p188
ag17
ag21
aa(lp189
S'43'
p190
aS'58'
p191
aS'52'
p192
ag21
aa(lp193
S'43'
p194
aS'59'
p195
ag21
ag21
aa(lp196
S'43'
p197
aS'64'
p198
ag17
ag21
aa(lp199
S'43'
p200
aS'64'
p201
ag17
ag21
aa(lp202
S'44'
p203
aS'64'
p204
ag83
ag21
aa(lp205
S'44'
p206
aS'58'
p207
ag39
ag21
aa(lp208
S'44'
p209
aS'63'
p210
aS'19'
p211
ag21
aa(lp212
S'45'
p213
aS'65'
p214
ag83
ag21
aa(lp215
S'45'
p216
aS'67'
p217
ag9
ag9
aa(lp218
S'46'
p219
aS'62'
p220
ag17
ag9
aa(lp221
S'46'
p222
aS'58'
p223
ag13
ag9
aa(lp224
S'46'
p225
aS'63'
p226
ag17
ag9
aa(lp227
S'47'
p228
aS'65'
p229
ag17
ag21
aa(lp230
S'47'
p231
aS'61'
p232
ag17
ag9
aa(lp233
S'47'
p234
aS'63'
p235
ag83
ag9
aa(lp236
S'47'
p237
aS'66'
p238
ag17
ag9
aa(lp239
S'47'
p240
aS'67'
p241
ag17
ag9
aa(lp242
S'47'
p243
aS'58'
p244
ag13
ag9
aa(lp245
S'47'
p246
aS'60'
p247
ag25
ag9
aa(lp248
S'47'
p249
aS'68'
p250
ag25
ag9
aa(lp251
S'47'
p252
aS'66'
p253
aS'12'
p254
ag9
aa(lp255
S'48'
p256
aS'58'
p257
aS'11'
p258
ag21
aa(lp259
S'48'
p260
aS'58'
p261
aS'11'
p262
ag21
aa(lp263
S'48'
p264
aS'67'
p265
ag54
ag21
aa(lp266
S'48'
p267
aS'61'
p268
ag167
ag9
aa(lp269
S'48'
p270
aS'62'
p271
ag21
ag9
aa(lp272
S'48'
p273
aS'64'
p274
ag17
ag9
aa(lp275
S'48'
p276
aS'66'
p277
ag17
ag9
aa(lp278
S'49'
p279
aS'63'
p280
ag17
ag21
aa(lp281
S'49'
p282
aS'64'
p283
aS'10'
p284
ag21
aa(lp285
S'49'
p286
aS'61'
p287
ag9
ag9
aa(lp288
S'49'
p289
aS'62'
p290
ag17
ag9
aa(lp291
S'49'
p292
aS'66'
p293
ag17
ag9
aa(lp294
S'49'
p295
aS'60'
p296
ag9
ag9
aa(lp297
S'49'
p298
aS'62'
p299
ag9
ag9
aa(lp300
S'49'
p301
aS'63'
p302
ag13
ag9
aa(lp303
S'49'
p304
aS'61'
p305
ag17
ag9
aa(lp306
S'49'
p307
aS'67'
p308
ag9
ag9
aa(lp309
S'50'
p310
aS'63'
p311
aS'13'
p312
ag21
aa(lp313
S'50'
p314
aS'64'
p315
ag17
ag21
aa(lp316
S'50'
p317
aS'59'
p318
ag17
ag9
aa(lp319
S'50'
p320
aS'61'
p321
ag83
ag9
aa(lp322
S'50'
p323
aS'61'
p324
ag17
ag9
aa(lp325
S'50'
p326
aS'63'
p327
ag9
ag9
aa(lp328
S'50'
p329
aS'58'
p330
ag9
ag9
aa(lp331
S'50'
p332
aS'59'
p333
ag21
ag9
aa(lp334
S'50'
p335
aS'61'
p336
ag17
ag9
aa(lp337
S'50'
p338
aS'64'
p339
ag17
ag9
aa(lp340
S'50'
p341
aS'65'
p342
ag25
ag9
aa(lp343
S'50'
p344
aS'66'
p345
ag9
ag9
aa(lp346
S'51'
p347
aS'59'
p348
aS'13'
p349
ag21
aa(lp350
S'51'
p351
aS'59'
p352
ag13
ag21
aa(lp353
S'51'
p354
aS'64'
p355
ag54
ag9
aa(lp356
S'51'
p357
aS'59'
p358
ag9
ag9
aa(lp359
S'51'
p360
aS'65'
p361
ag17
ag9
aa(lp362
S'51'
p363
aS'66'
p364
ag9
ag9
aa(lp365
S'52'
p366
aS'69'
p367
ag13
ag21
aa(lp368
S'52'
p369
aS'59'
p370
ag21
ag21
aa(lp371
S'52'
p372
aS'62'
p373
ag13
ag21
aa(lp374
S'52'
p375
aS'66'
p376
ag25
ag21
aa(lp377
S'52'
p378
aS'61'
p379
ag17
ag9
aa(lp380
S'52'
p381
aS'63'
p382
ag25
ag9
aa(lp383
S'52'
p384
aS'69'
p385
ag17
ag9
aa(lp386
S'52'
p387
aS'60'
p388
ag25
ag9
aa(lp389
S'52'
p390
aS'60'
p391
ag123
ag9
aa(lp392
S'52'
p393
aS'62'
p394
ag17
ag9
aa(lp395
S'52'
p396
aS'62'
p397
ag9
ag9
aa(lp398
S'52'
p399
aS'64'
p400
ag17
ag9
aa(lp401
S'52'
p402
aS'65'
p403
ag17
ag9
aa(lp404
S'52'
p405
aS'68'
p406
ag17
ag9
aa(lp407
S'53'
p408
aS'58'
p409
ag25
ag21
aa(lp410
S'53'
p411
aS'65'
p412
ag9
ag21
aa(lp413
S'53'
p414
aS'59'
p415
ag13
ag21
aa(lp416
S'53'
p417
aS'60'
p418
ag39
ag21
aa(lp419
S'53'
p420
aS'63'
p421
aS'24'
p422
ag21
aa(lp423
S'53'
p424
aS'65'
p425
aS'12'
p426
ag21
aa(lp427
S'53'
p428
aS'58'
p429
ag9
ag9
aa(lp430
S'53'
p431
aS'60'
p432
ag9
ag9
aa(lp433
S'53'
p434
aS'60'
p435
ag21
ag9
aa(lp436
S'53'
p437
aS'61'
p438
ag9
ag9
aa(lp439
S'53'
p440
aS'63'
p441
ag17
ag9
aa(lp442
S'54'
p443
aS'60'
p444
aS'11'
p445
ag21
aa(lp446
S'54'
p447
aS'65'
p448
aS'23'
p449
ag21
aa(lp450
S'54'
p451
aS'65'
p452
ag123
ag21
aa(lp453
S'54'
p454
aS'68'
p455
ag54
ag21
aa(lp456
S'54'
p457
aS'59'
p458
ag54
ag9
aa(lp459
S'54'
p460
aS'60'
p461
ag13
ag9
aa(lp462
S'54'
p463
aS'66'
p464
ag17
ag9
aa(lp465
S'54'
p466
aS'67'
p467
aS'46'
p468
ag9
aa(lp469
S'54'
p470
aS'62'
p471
ag17
ag9
aa(lp472
S'54'
p473
aS'69'
p474
ag54
ag9
aa(lp475
S'54'
p476
aS'63'
p477
aS'19'
p478
ag9
aa(lp479
S'54'
p480
aS'58'
p481
ag9
ag9
aa(lp482
S'54'
p483
aS'62'
p484
ag17
ag9
aa(lp485
S'55'
p486
aS'63'
p487
ag83
ag21
aa(lp488
S'55'
p489
aS'68'
p490
aS'15'
p491
ag21
aa(lp492
S'55'
p493
aS'58'
p494
ag9
ag9
aa(lp495
S'55'
p496
aS'58'
p497
ag17
ag9
aa(lp498
S'55'
p499
aS'58'
p500
ag9
ag9
aa(lp501
S'55'
p502
aS'66'
p503
aS'18'
p504
ag9
aa(lp505
S'55'
p506
aS'66'
p507
ag17
ag9
aa(lp508
S'55'
p509
aS'69'
p510
ag13
ag9
aa(lp511
S'55'
p512
aS'69'
p513
aS'22'
p514
ag9
aa(lp515
S'55'
p516
aS'67'
p517
ag9
ag9
aa(lp518
S'56'
p519
aS'65'
p520
ag39
ag21
aa(lp521
S'56'
p522
aS'66'
p523
ag13
ag21
aa(lp524
S'56'
p525
aS'60'
p526
ag17
ag9
aa(lp527
S'56'
p528
aS'66'
p529
ag21
ag9
aa(lp530
S'56'
p531
aS'66'
p532
ag9
ag9
aa(lp533
S'56'
p534
aS'67'
p535
ag17
ag9
aa(lp536
S'56'
p537
aS'60'
p538
ag17
ag9
aa(lp539
S'57'
p540
aS'61'
p541
ag123
ag21
aa(lp542
S'57'
p543
aS'62'
p544
aS'14'
p545
ag21
aa(lp546
S'57'
p547
aS'64'
p548
ag9
ag21
aa(lp549
S'57'
p550
aS'64'
p551
ag39
ag9
aa(lp552
S'57'
p553
aS'69'
p554
ag17
ag9
aa(lp555
S'57'
p556
aS'61'
p557
ag17
ag9
aa(lp558
S'57'
p559
aS'62'
p560
ag17
ag9
aa(lp561
S'57'
p562
aS'63'
p563
ag17
ag9
aa(lp564
S'57'
p565
aS'64'
p566
ag17
ag9
aa(lp567
S'57'
p568
aS'64'
p569
ag17
ag9
aa(lp570
S'57'
p571
aS'67'
p572
ag17
ag9
aa(lp573
S'58'
p574
aS'59'
p575
ag17
ag9
aa(lp576
S'58'
p577
aS'60'
p578
ag13
ag9
aa(lp579
S'58'
p580
aS'61'
p581
ag9
ag9
aa(lp582
S'58'
p583
aS'67'
p584
ag17
ag9
aa(lp585
S'58'
p586
aS'58'
p587
ag17
ag9
aa(lp588
S'58'
p589
aS'58'
p590
ag13
ag9
aa(lp591
S'58'
p592
aS'61'
p593
ag21
ag9
aa(lp594
S'59'
p595
aS'62'
p596
aS'35'
p597
ag21
aa(lp598
S'59'
p599
aS'60'
p600
ag17
ag9
aa(lp601
S'59'
p602
aS'63'
p603
ag17
ag9
aa(lp604
S'59'
p605
aS'64'
p606
ag9
ag9
aa(lp607
S'59'
p608
aS'64'
p609
ag25
ag9
aa(lp610
S'59'
p611
aS'64'
p612
ag17
ag9
aa(lp613
S'59'
p614
aS'64'
p615
ag54
ag9
aa(lp616
S'59'
p617
aS'67'
p618
ag13
ag9
aa(lp619
S'60'
p620
aS'59'
p621
aS'17'
p622
ag21
aa(lp623
S'60'
p624
aS'65'
p625
ag17
ag21
aa(lp626
S'60'
p627
aS'61'
p628
ag9
ag9
aa(lp629
S'60'
p630
aS'67'
p631
ag21
ag9
aa(lp632
S'60'
p633
aS'61'
p634
aS'25'
p635
ag9
aa(lp636
S'60'
p637
aS'64'
p638
ag17
ag9
aa(lp639
S'61'
p640
aS'62'
p641
ag123
ag21
aa(lp642
S'61'
p643
aS'65'
p644
ag17
ag21
aa(lp645
S'61'
p646
aS'68'
p647
ag9
ag21
aa(lp648
S'61'
p649
aS'59'
p650
ag17
ag9
aa(lp651
S'61'
p652
aS'59'
p653
ag17
ag9
aa(lp654
S'61'
p655
aS'64'
p656
ag17
ag9
aa(lp657
S'61'
p658
aS'65'
p659
ag167
ag9
aa(lp660
S'61'
p661
aS'68'
p662
ag17
ag9
aa(lp663
S'61'
p664
aS'59'
p665
ag17
ag9
aa(lp666
S'62'
p667
aS'59'
p668
aS'13'
p669
ag21
aa(lp670
S'62'
p671
aS'58'
p672
ag17
ag21
aa(lp673
S'62'
p674
aS'65'
p675
aS'19'
p676
ag21
aa(lp677
S'62'
p678
aS'62'
p679
ag83
ag9
aa(lp680
S'62'
p681
aS'66'
p682
ag17
ag9
aa(lp683
S'62'
p684
aS'66'
p685
ag17
ag9
aa(lp686
S'62'
p687
aS'58'
p688
ag17
ag9
aa(lp689
S'63'
p690
aS'60'
p691
ag9
ag21
aa(lp692
S'63'
p693
aS'61'
p694
ag17
ag9
aa(lp695
S'63'
p696
aS'62'
p697
ag17
ag9
aa(lp698
S'63'
p699
aS'63'
p700
ag17
ag9
aa(lp701
S'63'
p702
aS'63'
p703
ag17
ag9
aa(lp704
S'63'
p705
aS'66'
p706
ag17
ag9
aa(lp707
S'63'
p708
aS'61'
p709
ag39
ag9
aa(lp710
S'63'
p711
aS'61'
p712
aS'28'
p713
ag9
aa(lp714
S'64'
p715
aS'58'
p716
ag17
ag9
aa(lp717
S'64'
p718
aS'65'
p719
aS'22'
p720
ag9
aa(lp721
S'64'
p722
aS'66'
p723
ag17
ag9
aa(lp724
S'64'
p725
aS'61'
p726
ag17
ag9
aa(lp727
S'64'
p728
aS'68'
p729
ag17
ag9
aa(lp730
S'65'
p731
aS'58'
p732
ag17
ag21
aa(lp733
S'65'
p734
aS'61'
p735
ag21
ag21
aa(lp736
S'65'
p737
aS'62'
p738
aS'22'
p739
ag21
aa(lp740
S'65'
p741
aS'66'
p742
aS'15'
p743
ag21
aa(lp744
S'65'
p745
aS'58'
p746
ag17
ag9
aa(lp747
S'65'
p748
aS'64'
p749
ag17
ag9
aa(lp750
S'65'
p751
aS'67'
p752
ag17
ag9
aa(lp753
S'65'
p754
aS'59'
p755
ag21
ag9
aa(lp756
S'65'
p757
aS'64'
p758
ag17
ag9
aa(lp759
S'65'
p760
aS'67'
p761
ag9
ag9
aa(lp762
S'66'
p763
aS'58'
p764
ag17
ag21
aa(lp765
S'66'
p766
aS'61'
p767
aS'13'
p768
ag21
aa(lp769
S'66'
p770
aS'58'
p771
ag17
ag9
aa(lp772
S'66'
p773
aS'58'
p774
ag9
ag9
aa(lp775
S'66'
p776
aS'68'
p777
ag17
ag9
aa(lp778
S'67'
p779
aS'64'
p780
ag167
ag21
aa(lp781
S'67'
p782
aS'63'
p783
ag9
ag21
aa(lp784
S'67'
p785
aS'66'
p786
ag17
ag9
aa(lp787
S'67'
p788
aS'66'
p789
ag17
ag9
aa(lp790
S'67'
p791
aS'61'
p792
ag17
ag9
aa(lp793
S'67'
p794
aS'65'
p795
ag17
ag9
aa(lp796
S'68'
p797
aS'67'
p798
ag17
ag9
aa(lp799
S'68'
p800
aS'68'
p801
ag17
ag9
aa(lp802
S'69'
p803
aS'67'
p804
ag167
ag21
aa(lp805
S'69'
p806
aS'60'
p807
ag17
ag9
aa(lp808
S'69'
p809
aS'65'
p810
ag17
ag9
aa(lp811
S'69'
p812
aS'66'
p813
ag17
ag9
aa(lp814
S'70'
p815
aS'58'
p816
ag17
ag21
aa(lp817
S'70'
p818
aS'58'
p819
ag25
ag21
aa(lp820
S'70'
p821
aS'66'
p822
aS'14'
p823
ag9
aa(lp824
S'70'
p825
aS'67'
p826
ag17
ag9
aa(lp827
S'70'
p828
aS'68'
p829
ag17
ag9
aa(lp830
S'70'
p831
aS'59'
p832
ag167
ag9
aa(lp833
S'70'
p834
aS'63'
p835
ag17
ag9
aa(lp836
S'71'
p837
aS'68'
p838
ag21
ag9
aa(lp839
S'72'
p840
aS'63'
p841
ag17
ag21
aa(lp842
S'72'
p843
aS'58'
p844
ag17
ag9
aa(lp845
S'72'
p846
aS'64'
p847
ag17
ag9
aa(lp848
S'72'
p849
aS'67'
p850
ag13
ag9
aa(lp851
S'73'
p852
aS'62'
p853
ag17
ag9
aa(lp854
S'73'
p855
aS'68'
p856
ag17
ag9
aa(lp857
S'74'
p858
aS'65'
p859
ag13
ag21
aa(lp860
S'74'
p861
aS'63'
p862
ag17
ag9
aa(lp863
S'75'
p864
aS'62'
p865
ag9
ag9
aa(lp866
S'76'
p867
aS'67'
p868
ag17
ag9
aa(lp869
S'77'
p870
aS'65'
p871
ag13
ag9
aa(lp872
S'78'
p873
aS'65'
p874
ag9
ag21
aa(lp875
S'83'
p876
aS'58'
p877
ag21
ag21
aa.